

Microchip MPLAB XC8 Assembler V3.10 build 20250813170317 
                                                                                               Fri May 29 20:40:46 2026

Microchip MPLAB XC8 C Compiler v3.10 (Free license) build 20250813170317 Og1 
     1                           	processor	18F57Q43
     2                           	fnconf	rparam,??,?,0
     3                           	pagewidth 120
     4                           	opt	flic
     5                           	psect	smallconst,global,reloc=2,class=SMALLCONST,space=0,delta=1,noexec
     6                           	psect	cinit,global,reloc=2,class=CODE,space=0,delta=1
     7                           	psect	bssCOMRAM,global,class=COMRAM,space=1,delta=1,lowdata,noexec
     8                           	psect	cstackCOMRAM,global,class=COMRAM,space=1,delta=1,lowdata,noexec
     9                           	psect	text0,global,reloc=2,class=CODE,space=0,delta=1
    10                           	psect	text1,global,reloc=2,class=CODE,space=0,delta=1
    11                           	psect	text2,global,reloc=2,class=CODE,space=0,delta=1
    12                           	psect	text3,global,reloc=2,class=CODE,space=0,delta=1
    13                           	psect	text4,global,reloc=2,class=CODE,space=0,delta=1
    14                           	psect	text5,global,reloc=2,class=CODE,space=0,delta=1
    15                           	psect	text6,global,reloc=2,class=CODE,space=0,delta=1
    16                           	psect	text7,global,reloc=2,class=CODE,space=0,delta=1
    17                           	psect	text8,global,reloc=2,class=CODE,space=0,delta=1
    18                           	psect	text9,global,reloc=2,class=CODE,space=0,delta=1
    19                           	psect	text10,global,reloc=2,class=CODE,space=0,delta=1
    20                           	psect	intsave_regs,global,class=BIGRAM,space=1,delta=1,noexec
    21                           	psect	rparam,global,class=COMRAM,space=1,delta=1,noexec
    22                           	psect	config,global,abs,ovrld,class=CONFIG,space=4,delta=1,noexec
    23   000000                     
    24                           ; Generated 24/03/2025 GMT
    25                           ; 
    26                           ; Copyright © 2025, Microchip Technology Inc. and its subsidiaries ("Microchip")
    27                           ; All rights reserved.
    28                           ; 
    29                           ; This software is developed by Microchip Technology Inc. and its subsidiaries ("Microch
      +                          ip").
    30                           ; 
    31                           ; Redistribution and use in source and binary forms, with or without modification, are
    32                           ; permitted provided that the following conditions are met:
    33                           ; 
    34                           ;     1. Redistributions of source code must retain the above copyright notice, this lis
      +                          t of
    35                           ;        conditions and the following disclaimer.
    36                           ; 
    37                           ;     2. Redistributions in binary form must reproduce the above copyright notice, this 
      +                          list
    38                           ;        of conditions and the following disclaimer in the documentation and/or other
    39                           ;        materials provided with the distribution. Publication is not required when
    40                           ;        this file is used in an embedded application.
    41                           ; 
    42                           ;     3. Microchip's name may not be used to endorse or promote products derived from th
      +                          is
    43                           ;        software without specific prior written permission.
    44                           ; 
    45                           ; THIS SOFTWARE IS PROVIDED BY MICROCHIP "AS IS" AND ANY EXPRESS OR IMPLIED WARRANTIES,
    46                           ; INCLUDING, BUT NOT LIMITED TO, THE IMPLIED WARRANTIES OF MERCHANTABILITY AND FITNESS F
      +                          OR
    47                           ; PURPOSE ARE DISCLAIMED.  IN NO EVENT SHALL MICROCHIP BE LIABLE FOR ANY DIRECT, INDIREC
      +                          T,
    48                           ; INCIDENTAL, SPECIAL, EXEMPLARY, OR CONSEQUENTIAL DAMAGES (INCLUDING BUT NOT LIMITED TO
    49                           ; PROCUREMENT OF SUBSTITUTE GOODS OR SERVICES; LOSS OF USE, DATA OR PROFITS; OR BUSINESS
    50                           ; INTERRUPTION) HOWSOEVER CAUSED AND ON ANY THEORY OF LIABILITY, WHETHER IN CONTRACT, ST
      +                          RICT
    51                           ; LIABILITY, OR TORT (INCLUDING NEGLIGENCE OR OTHERWISE) ARISING IN ANY WAY OUT OF THE U
      +                          SE OF
    52                           ; THIS SOFTWARE, EVEN IF ADVISED OF THE POSSIBILITY OF SUCH DAMAGE.
    53                           ; 
    54                           ; 
    55                           ; Code-generator required, PIC18F57Q43 Definitions
    56                           ; 
    57                           ; SFR Addresses
    58   0004E0                     bsr             equ	1248
    59   0004E9                     fsr0            equ	1257
    60   0004EA                     fsr0h           equ	1258
    61   0004E9                     fsr0l           equ	1257
    62   0004E1                     fsr1            equ	1249
    63   0004E2                     fsr1h           equ	1250
    64   0004E1                     fsr1l           equ	1249
    65   0004D9                     fsr2            equ	1241
    66   0004DA                     fsr2h           equ	1242
    67   0004D9                     fsr2l           equ	1241
    68   0004EF                     indf0           equ	1263
    69   0004E7                     indf1           equ	1255
    70   0004DF                     indf2           equ	1247
    71   0004D6                     intcon          equ	1238
    72   000041                     nvmcon          equ	65
    73   0004F9                     pcl             equ	1273
    74   0004FA                     pclath          equ	1274
    75   0004FB                     pclatu          equ	1275
    76   0004EB                     plusw0          equ	1259
    77   0004E3                     plusw1          equ	1251
    78   0004DB                     plusw2          equ	1243
    79   0004ED                     postdec0        equ	1261
    80   0004E5                     postdec1        equ	1253
    81   0004DD                     postdec2        equ	1245
    82   0004EE                     postinc0        equ	1262
    83   0004E6                     postinc1        equ	1254
    84   0004DE                     postinc2        equ	1246
    85   0004EC                     preinc0         equ	1260
    86   0004E4                     preinc1         equ	1252
    87   0004DC                     preinc2         equ	1244
    88   0004F3                     prod            equ	1267
    89   0004F4                     prodh           equ	1268
    90   0004F3                     prodl           equ	1267
    91   0004D8                     status          equ	1240
    92   0004F5                     tablat          equ	1269
    93   0004F6                     tblptr          equ	1270
    94   0004F7                     tblptrh         equ	1271
    95   0004F6                     tblptrl         equ	1270
    96   0004F8                     tblptru         equ	1272
    97   0004FD                     tosl            equ	1277
    98   0004E8                     wreg            equ	1256
    99   000039                     CLKRCON         equ	57	;# 
   100   00003A                     CLKRCLK         equ	58	;# 
   101   000040                     NVMCON0         equ	64	;# 
   102   000041                     NVMCON1         equ	65	;# 
   103   000042                     NVMLOCK         equ	66	;# 
   104   000043                     NVMADR          equ	67	;# 
   105   000043                     NVMADRL         equ	67	;# 
   106   000044                     NVMADRH         equ	68	;# 
   107   000045                     NVMADRU         equ	69	;# 
   108   000046                     NVMDAT          equ	70	;# 
   109   000046                     NVMDATL         equ	70	;# 
   110   000047                     NVMDATH         equ	71	;# 
   111   000048                     VREGCON         equ	72	;# 
   112   000049                     BORCON          equ	73	;# 
   113   00004A                     HLVDCON0        equ	74	;# 
   114   00004B                     HLVDCON1        equ	75	;# 
   115   00004C                     ZCDCON          equ	76	;# 
   116   000060                     PMD0            equ	96	;# 
   117   000061                     PMD1            equ	97	;# 
   118   000063                     PMD3            equ	99	;# 
   119   000064                     PMD4            equ	100	;# 
   120   000065                     PMD5            equ	101	;# 
   121   000066                     PMD6            equ	102	;# 
   122   000067                     PMD7            equ	103	;# 
   123   000068                     PMD8            equ	104	;# 
   124   00006A                     MD1CON0         equ	106	;# 
   125   00006B                     MD1CON1         equ	107	;# 
   126   00006C                     MD1SRC          equ	108	;# 
   127   00006D                     MD1CARL         equ	109	;# 
   128   00006E                     MD1CARH         equ	110	;# 
   129   00006F                     CMOUT           equ	111	;# 
   130   000070                     CM1CON0         equ	112	;# 
   131   000071                     CM1CON1         equ	113	;# 
   132   000072                     CM1NCH          equ	114	;# 
   133   000073                     CM1PCH          equ	115	;# 
   134   000074                     CM2CON0         equ	116	;# 
   135   000075                     CM2CON1         equ	117	;# 
   136   000076                     CM2NCH          equ	118	;# 
   137   000077                     CM2PCH          equ	119	;# 
   138   000078                     WDTCON0         equ	120	;# 
   139   000079                     WDTCON1         equ	121	;# 
   140   00007A                     WDTPS           equ	122	;# 
   141   00007A                     WDTPSL          equ	122	;# 
   142   00007B                     WDTPSH          equ	123	;# 
   143   00007C                     WDTTMR          equ	124	;# 
   144   00007D                     DAC1DAT         equ	125	;# 
   145   00007D                     DAC1DATL        equ	125	;# 
   146   00007F                     DAC1CON         equ	127	;# 
   147   000080                     SPI1RXB         equ	128	;# 
   148   000081                     SPI1TXB         equ	129	;# 
   149   000082                     SPI1TCNT        equ	130	;# 
   150   000082                     SPI1TCNTL       equ	130	;# 
   151   000083                     SPI1TCNTH       equ	131	;# 
   152   000084                     SPI1CON0        equ	132	;# 
   153   000085                     SPI1CON1        equ	133	;# 
   154   000086                     SPI1CON2        equ	134	;# 
   155   000087                     SPI1STATUS      equ	135	;# 
   156   000088                     SPI1TWIDTH      equ	136	;# 
   157   000089                     SPI1BAUD        equ	137	;# 
   158   00008A                     SPI1INTF        equ	138	;# 
   159   00008B                     SPI1INTE        equ	139	;# 
   160   00008C                     SPI1CLK         equ	140	;# 
   161   00008D                     SPI2RXB         equ	141	;# 
   162   00008E                     SPI2TXB         equ	142	;# 
   163   00008F                     SPI2TCNT        equ	143	;# 
   164   00008F                     SPI2TCNTL       equ	143	;# 
   165   000090                     SPI2TCNTH       equ	144	;# 
   166   000091                     SPI2CON0        equ	145	;# 
   167   000092                     SPI2CON1        equ	146	;# 
   168   000093                     SPI2CON2        equ	147	;# 
   169   000094                     SPI2STATUS      equ	148	;# 
   170   000095                     SPI2TWIDTH      equ	149	;# 
   171   000096                     SPI2BAUD        equ	150	;# 
   172   000097                     SPI2INTF        equ	151	;# 
   173   000098                     SPI2INTE        equ	152	;# 
   174   000099                     SPI2CLK         equ	153	;# 
   175   0000AC                     ACTCON          equ	172	;# 
   176   0000AD                     OSCCON1         equ	173	;# 
   177   0000AE                     OSCCON2         equ	174	;# 
   178   0000AF                     OSCCON3         equ	175	;# 
   179   0000B0                     OSCTUNE         equ	176	;# 
   180   0000B1                     OSCFRQ          equ	177	;# 
   181   0000B1                     OSCFREQ         equ	177	;# 
   182   0000B2                     OSCSTAT         equ	178	;# 
   183   0000B2                     OSCSTAT1        equ	178	;# 
   184   0000B3                     OSCEN           equ	179	;# 
   185   0000B4                     PRLOCK          equ	180	;# 
   186   0000B5                     SCANPR          equ	181	;# 
   187   0000B6                     DMA1PR          equ	182	;# 
   188   0000B7                     DMA2PR          equ	183	;# 
   189   0000B8                     DMA3PR          equ	184	;# 
   190   0000B9                     DMA4PR          equ	185	;# 
   191   0000BA                     DMA5PR          equ	186	;# 
   192   0000BB                     DMA6PR          equ	187	;# 
   193   0000BE                     MAINPR          equ	190	;# 
   194   0000BF                     ISRPR           equ	191	;# 
   195   0000D4                     CLCDATA         equ	212	;# 
   196   0000D5                     CLCSELECT       equ	213	;# 
   197   0000D6                     CLCnCON         equ	214	;# 
   198   0000D7                     CLCnPOL         equ	215	;# 
   199   0000D8                     CLCnSEL0        equ	216	;# 
   200   0000D9                     CLCnSEL1        equ	217	;# 
   201   0000DA                     CLCnSEL2        equ	218	;# 
   202   0000DB                     CLCnSEL3        equ	219	;# 
   203   0000DC                     CLCnGLS0        equ	220	;# 
   204   0000DD                     CLCnGLS1        equ	221	;# 
   205   0000DE                     CLCnGLS2        equ	222	;# 
   206   0000DF                     CLCnGLS3        equ	223	;# 
   207   0000E8                     DMASELECT       equ	232	;# 
   208   0000E9                     DMAnBUF         equ	233	;# 
   209   0000EA                     DMAnDCNT        equ	234	;# 
   210   0000EA                     DMAnDCNTL       equ	234	;# 
   211   0000EB                     DMAnDCNTH       equ	235	;# 
   212   0000EC                     DMAnDPTR        equ	236	;# 
   213   0000EC                     DMAnDPTRL       equ	236	;# 
   214   0000ED                     DMAnDPTRH       equ	237	;# 
   215   0000EE                     DMAnDSZ         equ	238	;# 
   216   0000EE                     DMAnDSZL        equ	238	;# 
   217   0000EF                     DMAnDSZH        equ	239	;# 
   218   0000F0                     DMAnDSA         equ	240	;# 
   219   0000F0                     DMAnDSAL        equ	240	;# 
   220   0000F1                     DMAnDSAH        equ	241	;# 
   221   0000F2                     DMAnSCNT        equ	242	;# 
   222   0000F2                     DMAnSCNTL       equ	242	;# 
   223   0000F3                     DMAnSCNTH       equ	243	;# 
   224   0000F4                     DMAnSPTR        equ	244	;# 
   225   0000F4                     DMAnSPTRL       equ	244	;# 
   226   0000F5                     DMAnSPTRH       equ	245	;# 
   227   0000F6                     DMAnSPTRU       equ	246	;# 
   228   0000F7                     DMAnSSZ         equ	247	;# 
   229   0000F7                     DMAnSSZL        equ	247	;# 
   230   0000F8                     DMAnSSZH        equ	248	;# 
   231   0000F9                     DMAnSSA         equ	249	;# 
   232   0000F9                     DMAnSSAL        equ	249	;# 
   233   0000FA                     DMAnSSAH        equ	250	;# 
   234   0000FB                     DMAnSSAU        equ	251	;# 
   235   0000FC                     DMAnCON0        equ	252	;# 
   236   0000FD                     DMAnCON1        equ	253	;# 
   237   0000FE                     DMAnAIRQ        equ	254	;# 
   238   0000FF                     DMAnSIRQ        equ	255	;# 
   239   000200                     PPSLOCK         equ	512	;# 
   240   000201                     RA0PPS          equ	513	;# 
   241   000202                     RA1PPS          equ	514	;# 
   242   000203                     RA2PPS          equ	515	;# 
   243   000204                     RA3PPS          equ	516	;# 
   244   000205                     RA4PPS          equ	517	;# 
   245   000206                     RA5PPS          equ	518	;# 
   246   000207                     RA6PPS          equ	519	;# 
   247   000208                     RA7PPS          equ	520	;# 
   248   000209                     RB0PPS          equ	521	;# 
   249   00020A                     RB1PPS          equ	522	;# 
   250   00020B                     RB2PPS          equ	523	;# 
   251   00020C                     RB3PPS          equ	524	;# 
   252   00020D                     RB4PPS          equ	525	;# 
   253   00020E                     RB5PPS          equ	526	;# 
   254   00020F                     RB6PPS          equ	527	;# 
   255   000210                     RB7PPS          equ	528	;# 
   256   000211                     RC0PPS          equ	529	;# 
   257   000212                     RC1PPS          equ	530	;# 
   258   000213                     RC2PPS          equ	531	;# 
   259   000214                     RC3PPS          equ	532	;# 
   260   000215                     RC4PPS          equ	533	;# 
   261   000216                     RC5PPS          equ	534	;# 
   262   000217                     RC6PPS          equ	535	;# 
   263   000218                     RC7PPS          equ	536	;# 
   264   000219                     RD0PPS          equ	537	;# 
   265   00021A                     RD1PPS          equ	538	;# 
   266   00021B                     RD2PPS          equ	539	;# 
   267   00021C                     RD3PPS          equ	540	;# 
   268   00021D                     RD4PPS          equ	541	;# 
   269   00021E                     RD5PPS          equ	542	;# 
   270   00021F                     RD6PPS          equ	543	;# 
   271   000220                     RD7PPS          equ	544	;# 
   272   000221                     RE0PPS          equ	545	;# 
   273   000222                     RE1PPS          equ	546	;# 
   274   000223                     RE2PPS          equ	547	;# 
   275   000229                     RF0PPS          equ	553	;# 
   276   00022A                     RF1PPS          equ	554	;# 
   277   00022B                     RF2PPS          equ	555	;# 
   278   00022C                     RF3PPS          equ	556	;# 
   279   00022D                     RF4PPS          equ	557	;# 
   280   00022E                     RF5PPS          equ	558	;# 
   281   00022F                     RF6PPS          equ	559	;# 
   282   000230                     RF7PPS          equ	560	;# 
   283   00023E                     INT0PPS         equ	574	;# 
   284   00023F                     INT1PPS         equ	575	;# 
   285   000240                     INT2PPS         equ	576	;# 
   286   000241                     T0CKIPPS        equ	577	;# 
   287   000242                     T1CKIPPS        equ	578	;# 
   288   000243                     T1GPPS          equ	579	;# 
   289   000244                     T3CKIPPS        equ	580	;# 
   290   000245                     T3GPPS          equ	581	;# 
   291   000246                     T5CKIPPS        equ	582	;# 
   292   000247                     T5GPPS          equ	583	;# 
   293   000248                     T2INPPS         equ	584	;# 
   294   000249                     T4INPPS         equ	585	;# 
   295   00024A                     T6INPPS         equ	586	;# 
   296   00024F                     CCP1PPS         equ	591	;# 
   297   000250                     CCP2PPS         equ	592	;# 
   298   000251                     CCP3PPS         equ	593	;# 
   299   000253                     PWM1ERSPPS      equ	595	;# 
   300   000254                     PWM2ERSPPS      equ	596	;# 
   301   000255                     PWM3ERSPPS      equ	597	;# 
   302   000257                     PWMIN0PPS       equ	599	;# 
   303   000258                     PWMIN1PPS       equ	600	;# 
   304   000259                     SMT1WINPPS      equ	601	;# 
   305   00025A                     SMT1SIGPPS      equ	602	;# 
   306   00025B                     CWG1PPS         equ	603	;# 
   307   00025B                     CWG1INPPS       equ	603	;# 
   308   00025C                     CWG2PPS         equ	604	;# 
   309   00025C                     CWG2INPPS       equ	604	;# 
   310   00025D                     CWG3PPS         equ	605	;# 
   311   00025D                     CWG3INPPS       equ	605	;# 
   312   00025E                     MD1CARLPPS      equ	606	;# 
   313   00025E                     MDCARLPPS       equ	606	;# 
   314   00025F                     MD1CARHPPS      equ	607	;# 
   315   00025F                     MDCARHPPS       equ	607	;# 
   316   000260                     MD1SRCPPS       equ	608	;# 
   317   000260                     MDSRCPPS        equ	608	;# 
   318   000261                     CLCIN0PPS       equ	609	;# 
   319   000262                     CLCIN1PPS       equ	610	;# 
   320   000263                     CLCIN2PPS       equ	611	;# 
   321   000264                     CLCIN3PPS       equ	612	;# 
   322   000265                     CLCIN4PPS       equ	613	;# 
   323   000266                     CLCIN5PPS       equ	614	;# 
   324   000267                     CLCIN6PPS       equ	615	;# 
   325   000268                     CLCIN7PPS       equ	616	;# 
   326   000269                     ADACTPPS        equ	617	;# 
   327   00026A                     SPI1SCKPPS      equ	618	;# 
   328   00026B                     SPI1SDIPPS      equ	619	;# 
   329   00026C                     SPI1SSPPS       equ	620	;# 
   330   00026D                     SPI2SCKPPS      equ	621	;# 
   331   00026E                     SPI2SDIPPS      equ	622	;# 
   332   00026F                     SPI2SSPPS       equ	623	;# 
   333   000270                     I2C1SDAPPS      equ	624	;# 
   334   000271                     I2C1SCLPPS      equ	625	;# 
   335   000272                     U1RXPPS         equ	626	;# 
   336   000273                     U1CTSPPS        equ	627	;# 
   337   000274                     U2RXPPS         equ	628	;# 
   338   000275                     U2CTSPPS        equ	629	;# 
   339   000276                     U3RXPPS         equ	630	;# 
   340   000277                     U3CTSPPS        equ	631	;# 
   341   000278                     U4RXPPS         equ	632	;# 
   342   000279                     U4CTSPPS        equ	633	;# 
   343   00027A                     U5RXPPS         equ	634	;# 
   344   00027B                     U5CTSPPS        equ	635	;# 
   345   000286                     RC4I2C          equ	646	;# 
   346   000287                     RC3I2C          equ	647	;# 
   347   000288                     RB2I2C          equ	648	;# 
   348   000289                     RB1I2C          equ	649	;# 
   349   00028B                     I2C1RXB         equ	651	;# 
   350   00028C                     I2C1TXB         equ	652	;# 
   351   00028D                     I2C1CNT         equ	653	;# 
   352   00028E                     I2C1ADB0        equ	654	;# 
   353   00028F                     I2C1ADB1        equ	655	;# 
   354   000290                     I2C1ADR0        equ	656	;# 
   355   000291                     I2C1ADR1        equ	657	;# 
   356   000292                     I2C1ADR2        equ	658	;# 
   357   000293                     I2C1ADR3        equ	659	;# 
   358   000294                     I2C1CON0        equ	660	;# 
   359   000295                     I2C1CON1        equ	661	;# 
   360   000296                     I2C1CON2        equ	662	;# 
   361   000297                     I2C1ERR         equ	663	;# 
   362   000298                     I2C1STAT0       equ	664	;# 
   363   000299                     I2C1STAT1       equ	665	;# 
   364   00029A                     I2C1PIR         equ	666	;# 
   365   00029B                     I2C1PIE         equ	667	;# 
   366   00029C                     I2C1CLK         equ	668	;# 
   367   00029D                     I2C1BTO         equ	669	;# 
   368   0002A1                     U1RXB           equ	673	;# 
   369   0002A1                     U1RXBL          equ	673	;# 
   370   0002A2                     U1RXCHK         equ	674	;# 
   371   0002A3                     U1TXB           equ	675	;# 
   372   0002A3                     U1TXBL          equ	675	;# 
   373   0002A4                     U1TXCHK         equ	676	;# 
   374   0002A5                     U1P1            equ	677	;# 
   375   0002A5                     U1P1L           equ	677	;# 
   376   0002A6                     U1P1H           equ	678	;# 
   377   0002A7                     U1P2            equ	679	;# 
   378   0002A7                     U1P2L           equ	679	;# 
   379   0002A8                     U1P2H           equ	680	;# 
   380   0002A9                     U1P3            equ	681	;# 
   381   0002A9                     U1P3L           equ	681	;# 
   382   0002AA                     U1P3H           equ	682	;# 
   383   0002AB                     U1CON0          equ	683	;# 
   384   0002AC                     U1CON1          equ	684	;# 
   385   0002AD                     U1CON2          equ	685	;# 
   386   0002AE                     U1BRG           equ	686	;# 
   387   0002AE                     U1BRGL          equ	686	;# 
   388   0002AF                     U1BRGH          equ	687	;# 
   389   0002B0                     U1FIFO          equ	688	;# 
   390   0002B1                     U1UIR           equ	689	;# 
   391   0002B2                     U1ERRIR         equ	690	;# 
   392   0002B3                     U1ERRIE         equ	691	;# 
   393   0002B4                     U2RXB           equ	692	;# 
   394   0002B4                     U2RXBL          equ	692	;# 
   395   0002B6                     U2TXB           equ	694	;# 
   396   0002B6                     U2TXBL          equ	694	;# 
   397   0002B8                     U2P1            equ	696	;# 
   398   0002B8                     U2P1L           equ	696	;# 
   399   0002BA                     U2P2            equ	698	;# 
   400   0002BA                     U2P2L           equ	698	;# 
   401   0002BC                     U2P3            equ	700	;# 
   402   0002BC                     U2P3L           equ	700	;# 
   403   0002BE                     U2CON0          equ	702	;# 
   404   0002BF                     U2CON1          equ	703	;# 
   405   0002C0                     U2CON2          equ	704	;# 
   406   0002C1                     U2BRG           equ	705	;# 
   407   0002C1                     U2BRGL          equ	705	;# 
   408   0002C2                     U2BRGH          equ	706	;# 
   409   0002C3                     U2FIFO          equ	707	;# 
   410   0002C4                     U2UIR           equ	708	;# 
   411   0002C5                     U2ERRIR         equ	709	;# 
   412   0002C6                     U2ERRIE         equ	710	;# 
   413   0002C7                     U3RXB           equ	711	;# 
   414   0002C7                     U3RXBL          equ	711	;# 
   415   0002C9                     U3TXB           equ	713	;# 
   416   0002C9                     U3TXBL          equ	713	;# 
   417   0002CB                     U3P1            equ	715	;# 
   418   0002CB                     U3P1L           equ	715	;# 
   419   0002CD                     U3P2            equ	717	;# 
   420   0002CD                     U3P2L           equ	717	;# 
   421   0002CF                     U3P3            equ	719	;# 
   422   0002CF                     U3P3L           equ	719	;# 
   423   0002D1                     U3CON0          equ	721	;# 
   424   0002D2                     U3CON1          equ	722	;# 
   425   0002D3                     U3CON2          equ	723	;# 
   426   0002D4                     U3BRG           equ	724	;# 
   427   0002D4                     U3BRGL          equ	724	;# 
   428   0002D5                     U3BRGH          equ	725	;# 
   429   0002D6                     U3FIFO          equ	726	;# 
   430   0002D7                     U3UIR           equ	727	;# 
   431   0002D8                     U3ERRIR         equ	728	;# 
   432   0002D9                     U3ERRIE         equ	729	;# 
   433   0002DA                     U4RXB           equ	730	;# 
   434   0002DA                     U4RXBL          equ	730	;# 
   435   0002DC                     U4TXB           equ	732	;# 
   436   0002DC                     U4TXBL          equ	732	;# 
   437   0002DE                     U4P1            equ	734	;# 
   438   0002DE                     U4P1L           equ	734	;# 
   439   0002E0                     U4P2            equ	736	;# 
   440   0002E0                     U4P2L           equ	736	;# 
   441   0002E2                     U4P3            equ	738	;# 
   442   0002E2                     U4P3L           equ	738	;# 
   443   0002E4                     U4CON0          equ	740	;# 
   444   0002E5                     U4CON1          equ	741	;# 
   445   0002E6                     U4CON2          equ	742	;# 
   446   0002E7                     U4BRG           equ	743	;# 
   447   0002E7                     U4BRGL          equ	743	;# 
   448   0002E8                     U4BRGH          equ	744	;# 
   449   0002E9                     U4FIFO          equ	745	;# 
   450   0002EA                     U4UIR           equ	746	;# 
   451   0002EB                     U4ERRIR         equ	747	;# 
   452   0002EC                     U4ERRIE         equ	748	;# 
   453   0002ED                     U5RXB           equ	749	;# 
   454   0002ED                     U5RXBL          equ	749	;# 
   455   0002EF                     U5TXB           equ	751	;# 
   456   0002EF                     U5TXBL          equ	751	;# 
   457   0002F1                     U5P1            equ	753	;# 
   458   0002F1                     U5P1L           equ	753	;# 
   459   0002F3                     U5P2            equ	755	;# 
   460   0002F3                     U5P2L           equ	755	;# 
   461   0002F5                     U5P3            equ	757	;# 
   462   0002F5                     U5P3L           equ	757	;# 
   463   0002F7                     U5CON0          equ	759	;# 
   464   0002F8                     U5CON1          equ	760	;# 
   465   0002F9                     U5CON2          equ	761	;# 
   466   0002FA                     U5BRG           equ	762	;# 
   467   0002FA                     U5BRGL          equ	762	;# 
   468   0002FB                     U5BRGH          equ	763	;# 
   469   0002FC                     U5FIFO          equ	764	;# 
   470   0002FD                     U5UIR           equ	765	;# 
   471   0002FE                     U5ERRIR         equ	766	;# 
   472   0002FF                     U5ERRIE         equ	767	;# 
   473   000300                     SMT1TMR         equ	768	;# 
   474   000300                     SMT1TMRL        equ	768	;# 
   475   000301                     SMT1TMRH        equ	769	;# 
   476   000302                     SMT1TMRU        equ	770	;# 
   477   000303                     SMT1CPR         equ	771	;# 
   478   000303                     SMT1CPRL        equ	771	;# 
   479   000304                     SMT1CPRH        equ	772	;# 
   480   000305                     SMT1CPRU        equ	773	;# 
   481   000306                     SMT1CPW         equ	774	;# 
   482   000306                     SMT1CPWL        equ	774	;# 
   483   000307                     SMT1CPWH        equ	775	;# 
   484   000308                     SMT1CPWU        equ	776	;# 
   485   000309                     SMT1PR          equ	777	;# 
   486   000309                     SMT1PRL         equ	777	;# 
   487   00030A                     SMT1PRH         equ	778	;# 
   488   00030B                     SMT1PRU         equ	779	;# 
   489   00030C                     SMT1CON0        equ	780	;# 
   490   00030D                     SMT1CON1        equ	781	;# 
   491   00030E                     SMT1STAT        equ	782	;# 
   492   00030F                     SMT1CLK         equ	783	;# 
   493   000310                     SMT1SIG         equ	784	;# 
   494   000311                     SMT1WIN         equ	785	;# 
   495   000318                     TMR0L           equ	792	;# 
   496   000318                     TMR0            equ	792	;# 
   497   000319                     TMR0H           equ	793	;# 
   498   000319                     PR0             equ	793	;# 
   499   00031A                     T0CON0          equ	794	;# 
   500   00031B                     T0CON1          equ	795	;# 
   501   00031C                     TMR1            equ	796	;# 
   502   00031C                     TMR1L           equ	796	;# 
   503   00031D                     TMR1H           equ	797	;# 
   504   00031E                     T1CON           equ	798	;# 
   505   00031E                     TMR1CON         equ	798	;# 
   506   00031F                     T1GCON          equ	799	;# 
   507   00031F                     TMR1GCON        equ	799	;# 
   508   000320                     T1GATE          equ	800	;# 
   509   000320                     TMR1GATE        equ	800	;# 
   510   000321                     T1CLK           equ	801	;# 
   511   000321                     TMR1CLK         equ	801	;# 
   512   000321                     PR1             equ	801	;# 
   513   000322                     T2TMR           equ	802	;# 
   514   000322                     TMR2            equ	802	;# 
   515   000323                     T2PR            equ	803	;# 
   516   000323                     PR2             equ	803	;# 
   517   000324                     T2CON           equ	804	;# 
   518   000325                     T2HLT           equ	805	;# 
   519   000326                     T2CLKCON        equ	806	;# 
   520   000326                     T2CLK           equ	806	;# 
   521   000327                     T2RST           equ	807	;# 
   522   000328                     TMR3            equ	808	;# 
   523   000328                     TMR3L           equ	808	;# 
   524   000329                     TMR3H           equ	809	;# 
   525   00032A                     T3CON           equ	810	;# 
   526   00032A                     TMR3CON         equ	810	;# 
   527   00032B                     T3GCON          equ	811	;# 
   528   00032B                     TMR3GCON        equ	811	;# 
   529   00032C                     T3GATE          equ	812	;# 
   530   00032C                     TMR3GATE        equ	812	;# 
   531   00032D                     T3CLK           equ	813	;# 
   532   00032D                     TMR3CLK         equ	813	;# 
   533   00032D                     PR3             equ	813	;# 
   534   00032E                     T4TMR           equ	814	;# 
   535   00032E                     TMR4            equ	814	;# 
   536   00032F                     T4PR            equ	815	;# 
   537   00032F                     PR4             equ	815	;# 
   538   000330                     T4CON           equ	816	;# 
   539   000331                     T4HLT           equ	817	;# 
   540   000332                     T4CLKCON        equ	818	;# 
   541   000332                     T4CLK           equ	818	;# 
   542   000333                     T4RST           equ	819	;# 
   543   000334                     TMR5            equ	820	;# 
   544   000334                     TMR5L           equ	820	;# 
   545   000335                     TMR5H           equ	821	;# 
   546   000336                     T5CON           equ	822	;# 
   547   000336                     TMR5CON         equ	822	;# 
   548   000337                     T5GCON          equ	823	;# 
   549   000337                     TMR5GCON        equ	823	;# 
   550   000338                     T5GATE          equ	824	;# 
   551   000338                     TMR5GATE        equ	824	;# 
   552   000339                     T5CLK           equ	825	;# 
   553   000339                     TMR5CLK         equ	825	;# 
   554   000339                     PR5             equ	825	;# 
   555   00033A                     T6TMR           equ	826	;# 
   556   00033A                     TMR6            equ	826	;# 
   557   00033B                     T6PR            equ	827	;# 
   558   00033B                     PR6             equ	827	;# 
   559   00033C                     T6CON           equ	828	;# 
   560   00033D                     T6HLT           equ	829	;# 
   561   00033E                     T6CLKCON        equ	830	;# 
   562   00033E                     T6CLK           equ	830	;# 
   563   00033F                     T6RST           equ	831	;# 
   564   000340                     CCPR1           equ	832	;# 
   565   000340                     CCPR1L          equ	832	;# 
   566   000341                     CCPR1H          equ	833	;# 
   567   000342                     CCP1CON         equ	834	;# 
   568   000343                     CCP1CAP         equ	835	;# 
   569   000344                     CCPR2           equ	836	;# 
   570   000344                     CCPR2L          equ	836	;# 
   571   000345                     CCPR2H          equ	837	;# 
   572   000346                     CCP2CON         equ	838	;# 
   573   000347                     CCP2CAP         equ	839	;# 
   574   000348                     CCPR3           equ	840	;# 
   575   000348                     CCPR3L          equ	840	;# 
   576   000349                     CCPR3H          equ	841	;# 
   577   00034A                     CCP3CON         equ	842	;# 
   578   00034B                     CCP3CAP         equ	843	;# 
   579   00034C                     CCPTMRS0        equ	844	;# 
   580   00034F                     CRCDATA         equ	847	;# 
   581   00034F                     CRCDATL         equ	847	;# 
   582   000350                     CRCDATH         equ	848	;# 
   583   000351                     CRCACC          equ	849	;# 
   584   000351                     CRCACCL         equ	849	;# 
   585   000352                     CRCACCH         equ	850	;# 
   586   000353                     CRCSHFT         equ	851	;# 
   587   000353                     CRCSHIFTL       equ	851	;# 
   588   000354                     CRCSHIFTH       equ	852	;# 
   589   000355                     CRCXOR          equ	853	;# 
   590   000355                     CRCXORL         equ	853	;# 
   591   000356                     CRCXORH         equ	854	;# 
   592   000357                     CRCCON0         equ	855	;# 
   593   000358                     CRCCON1         equ	856	;# 
   594   00035A                     SCANLADR        equ	858	;# 
   595   00035A                     SCANLADRL       equ	858	;# 
   596   00035B                     SCANLADRH       equ	859	;# 
   597   00035C                     SCANLADRU       equ	860	;# 
   598   00035D                     SCANHADR        equ	861	;# 
   599   00035D                     SCANHADRL       equ	861	;# 
   600   00035E                     SCANHADRH       equ	862	;# 
   601   00035F                     SCANHADRU       equ	863	;# 
   602   000360                     SCANCON0        equ	864	;# 
   603   000361                     SCANTRIG        equ	865	;# 
   604   000362                     IPR0            equ	866	;# 
   605   000363                     IPR1            equ	867	;# 
   606   000364                     IPR2            equ	868	;# 
   607   000365                     IPR3            equ	869	;# 
   608   000366                     IPR4            equ	870	;# 
   609   000367                     IPR5            equ	871	;# 
   610   000368                     IPR6            equ	872	;# 
   611   000369                     IPR7            equ	873	;# 
   612   00036A                     IPR8            equ	874	;# 
   613   00036B                     IPR9            equ	875	;# 
   614   00036C                     IPR10           equ	876	;# 
   615   00036D                     IPR11           equ	877	;# 
   616   00036E                     IPR12           equ	878	;# 
   617   00036F                     IPR13           equ	879	;# 
   618   000370                     IPR14           equ	880	;# 
   619   000371                     IPR15           equ	881	;# 
   620   000373                     STATUS_CSHAD    equ	883	;# 
   621   000374                     WREG_CSHAD      equ	884	;# 
   622   000375                     BSR_CSHAD       equ	885	;# 
   623   000376                     SHADCON         equ	886	;# 
   624   000377                     STATUS_SHAD     equ	887	;# 
   625   000378                     WREG_SHAD       equ	888	;# 
   626   000379                     BSR_SHAD        equ	889	;# 
   627   00037A                     PCLATH_SHAD     equ	890	;# 
   628   00037B                     PCLATU_SHAD     equ	891	;# 
   629   00037C                     FSR0SH          equ	892	;# 
   630   00037C                     FSR0L_SHAD      equ	892	;# 
   631   00037D                     FSR0H_SHAD      equ	893	;# 
   632   00037E                     FSR1SH          equ	894	;# 
   633   00037E                     FSR1L_SHAD      equ	894	;# 
   634   00037F                     FSR1H_SHAD      equ	895	;# 
   635   000380                     FSR2SH          equ	896	;# 
   636   000380                     FSR2L_SHAD      equ	896	;# 
   637   000381                     FSR2H_SHAD      equ	897	;# 
   638   000382                     PRODSH          equ	898	;# 
   639   000382                     PRODL_SHAD      equ	898	;# 
   640   000383                     PRODH_SHAD      equ	899	;# 
   641   0003BC                     CWG1CLK         equ	956	;# 
   642   0003BC                     CWG1CLKCON      equ	956	;# 
   643   0003BD                     CWG1ISM         equ	957	;# 
   644   0003BD                     CWG1DAT         equ	957	;# 
   645   0003BE                     CWG1DBR         equ	958	;# 
   646   0003BF                     CWG1DBF         equ	959	;# 
   647   0003C0                     CWG1CON0        equ	960	;# 
   648   0003C1                     CWG1CON1        equ	961	;# 
   649   0003C2                     CWG1AS0         equ	962	;# 
   650   0003C3                     CWG1AS1         equ	963	;# 
   651   0003C4                     CWG1STR         equ	964	;# 
   652   0003C5                     CWG2CLK         equ	965	;# 
   653   0003C5                     CWG2CLKCON      equ	965	;# 
   654   0003C6                     CWG2ISM         equ	966	;# 
   655   0003C6                     CWG2DAT         equ	966	;# 
   656   0003C7                     CWG2DBR         equ	967	;# 
   657   0003C8                     CWG2DBF         equ	968	;# 
   658   0003C9                     CWG2CON0        equ	969	;# 
   659   0003CA                     CWG2CON1        equ	970	;# 
   660   0003CB                     CWG2AS0         equ	971	;# 
   661   0003CC                     CWG2AS1         equ	972	;# 
   662   0003CD                     CWG2STR         equ	973	;# 
   663   0003CE                     CWG3CLK         equ	974	;# 
   664   0003CE                     CWG3CLKCON      equ	974	;# 
   665   0003CF                     CWG3ISM         equ	975	;# 
   666   0003CF                     CWG3DAT         equ	975	;# 
   667   0003D0                     CWG3DBR         equ	976	;# 
   668   0003D1                     CWG3DBF         equ	977	;# 
   669   0003D2                     CWG3CON0        equ	978	;# 
   670   0003D3                     CWG3CON1        equ	979	;# 
   671   0003D4                     CWG3AS0         equ	980	;# 
   672   0003D5                     CWG3AS1         equ	981	;# 
   673   0003D6                     CWG3STR         equ	982	;# 
   674   0003D7                     FVRCON          equ	983	;# 
   675   0003D8                     ADCPCON         equ	984	;# 
   676   0003D8                     ADCP            equ	984	;# 
   677   0003D9                     ADLTH           equ	985	;# 
   678   0003D9                     ADLTHL          equ	985	;# 
   679   0003DA                     ADLTHH          equ	986	;# 
   680   0003DB                     ADUTH           equ	987	;# 
   681   0003DB                     ADUTHL          equ	987	;# 
   682   0003DC                     ADUTHH          equ	988	;# 
   683   0003DD                     ADERR           equ	989	;# 
   684   0003DD                     ADERRL          equ	989	;# 
   685   0003DE                     ADERRH          equ	990	;# 
   686   0003DF                     ADSTPT          equ	991	;# 
   687   0003DF                     ADSTPTL         equ	991	;# 
   688   0003E0                     ADSTPTH         equ	992	;# 
   689   0003E1                     ADFLTR          equ	993	;# 
   690   0003E1                     ADFLTRL         equ	993	;# 
   691   0003E2                     ADFLTRH         equ	994	;# 
   692   0003E3                     ADACC           equ	995	;# 
   693   0003E3                     ADACCL          equ	995	;# 
   694   0003E4                     ADACCH          equ	996	;# 
   695   0003E5                     ADACCU          equ	997	;# 
   696   0003E6                     ADCNT           equ	998	;# 
   697   0003E7                     ADRPT           equ	999	;# 
   698   0003E8                     ADPREV          equ	1000	;# 
   699   0003E8                     ADPREVL         equ	1000	;# 
   700   0003E9                     ADPREVH         equ	1001	;# 
   701   0003EA                     ADRES           equ	1002	;# 
   702   0003EA                     ADRESL          equ	1002	;# 
   703   0003EB                     ADRESH          equ	1003	;# 
   704   0003EC                     ADPCH           equ	1004	;# 
   705   0003EE                     ADACQ           equ	1006	;# 
   706   0003EE                     ADACQL          equ	1006	;# 
   707   0003EF                     ADACQH          equ	1007	;# 
   708   0003F0                     ADCAP           equ	1008	;# 
   709   0003F1                     ADPRE           equ	1009	;# 
   710   0003F1                     ADPREL          equ	1009	;# 
   711   0003F2                     ADPREH          equ	1010	;# 
   712   0003F3                     ADCON0          equ	1011	;# 
   713   0003F4                     ADCON1          equ	1012	;# 
   714   0003F5                     ADCON2          equ	1013	;# 
   715   0003F6                     ADCON3          equ	1014	;# 
   716   0003F7                     ADSTAT          equ	1015	;# 
   717   0003F8                     ADREF           equ	1016	;# 
   718   0003F9                     ADACT           equ	1017	;# 
   719   0003FA                     ADCLK           equ	1018	;# 
   720   000400                     ANSELA          equ	1024	;# 
   721   000401                     WPUA            equ	1025	;# 
   722   000402                     ODCONA          equ	1026	;# 
   723   000403                     SLRCONA         equ	1027	;# 
   724   000404                     INLVLA          equ	1028	;# 
   725   000405                     IOCAP           equ	1029	;# 
   726   000406                     IOCAN           equ	1030	;# 
   727   000407                     IOCAF           equ	1031	;# 
   728   000408                     ANSELB          equ	1032	;# 
   729   000409                     WPUB            equ	1033	;# 
   730   00040A                     ODCONB          equ	1034	;# 
   731   00040B                     SLRCONB         equ	1035	;# 
   732   00040C                     INLVLB          equ	1036	;# 
   733   00040D                     IOCBP           equ	1037	;# 
   734   00040E                     IOCBN           equ	1038	;# 
   735   00040F                     IOCBF           equ	1039	;# 
   736   000410                     ANSELC          equ	1040	;# 
   737   000411                     WPUC            equ	1041	;# 
   738   000412                     ODCONC          equ	1042	;# 
   739   000413                     SLRCONC         equ	1043	;# 
   740   000414                     INLVLC          equ	1044	;# 
   741   000415                     IOCCP           equ	1045	;# 
   742   000416                     IOCCN           equ	1046	;# 
   743   000417                     IOCCF           equ	1047	;# 
   744   000418                     ANSELD          equ	1048	;# 
   745   000419                     WPUD            equ	1049	;# 
   746   00041A                     ODCOND          equ	1050	;# 
   747   00041B                     SLRCOND         equ	1051	;# 
   748   00041C                     INLVLD          equ	1052	;# 
   749   000420                     ANSELE          equ	1056	;# 
   750   000421                     WPUE            equ	1057	;# 
   751   000422                     ODCONE          equ	1058	;# 
   752   000423                     SLRCONE         equ	1059	;# 
   753   000424                     INLVLE          equ	1060	;# 
   754   000425                     IOCEP           equ	1061	;# 
   755   000426                     IOCEN           equ	1062	;# 
   756   000427                     IOCEF           equ	1063	;# 
   757   000428                     ANSELF          equ	1064	;# 
   758   000429                     WPUF            equ	1065	;# 
   759   00042A                     ODCONF          equ	1066	;# 
   760   00042B                     SLRCONF         equ	1067	;# 
   761   00042C                     INLVLF          equ	1068	;# 
   762   000440                     NCO1ACC         equ	1088	;# 
   763   000440                     NCO1ACCL        equ	1088	;# 
   764   000441                     NCO1ACCH        equ	1089	;# 
   765   000442                     NCO1ACCU        equ	1090	;# 
   766   000443                     NCO1INC         equ	1091	;# 
   767   000443                     NCO1INCL        equ	1091	;# 
   768   000444                     NCO1INCH        equ	1092	;# 
   769   000445                     NCO1INCU        equ	1093	;# 
   770   000446                     NCO1CON         equ	1094	;# 
   771   000447                     NCO1CLK         equ	1095	;# 
   772   000448                     NCO2ACC         equ	1096	;# 
   773   000448                     NCO2ACCL        equ	1096	;# 
   774   000449                     NCO2ACCH        equ	1097	;# 
   775   00044A                     NCO2ACCU        equ	1098	;# 
   776   00044B                     NCO2INC         equ	1099	;# 
   777   00044B                     NCO2INCL        equ	1099	;# 
   778   00044C                     NCO2INCH        equ	1100	;# 
   779   00044D                     NCO2INCU        equ	1101	;# 
   780   00044E                     NCO2CON         equ	1102	;# 
   781   00044F                     NCO2CLK         equ	1103	;# 
   782   000450                     NCO3ACC         equ	1104	;# 
   783   000450                     NCO3ACCL        equ	1104	;# 
   784   000451                     NCO3ACCH        equ	1105	;# 
   785   000452                     NCO3ACCU        equ	1106	;# 
   786   000453                     NCO3INC         equ	1107	;# 
   787   000453                     NCO3INCL        equ	1107	;# 
   788   000454                     NCO3INCH        equ	1108	;# 
   789   000455                     NCO3INCU        equ	1109	;# 
   790   000456                     NCO3CON         equ	1110	;# 
   791   000457                     NCO3CLK         equ	1111	;# 
   792   000459                     IVTLOCK         equ	1113	;# 
   793   00045A                     IVTAD           equ	1114	;# 
   794   00045A                     IVTADL          equ	1114	;# 
   795   00045B                     IVTADH          equ	1115	;# 
   796   00045C                     IVTADU          equ	1116	;# 
   797   00045D                     IVTBASE         equ	1117	;# 
   798   00045D                     IVTBASEL        equ	1117	;# 
   799   00045E                     IVTBASEH        equ	1118	;# 
   800   00045F                     IVTBASEU        equ	1119	;# 
   801   000460                     PWM1ERS         equ	1120	;# 
   802   000461                     PWM1CLK         equ	1121	;# 
   803   000462                     PWM1LDS         equ	1122	;# 
   804   000463                     PWM1PR          equ	1123	;# 
   805   000463                     PWM1PRL         equ	1123	;# 
   806   000464                     PWM1PRH         equ	1124	;# 
   807   000465                     PWM1CPRE        equ	1125	;# 
   808   000466                     PWM1PIPOS       equ	1126	;# 
   809   000467                     PWM1GIR         equ	1127	;# 
   810   000468                     PWM1GIE         equ	1128	;# 
   811   000469                     PWM1CON         equ	1129	;# 
   812   00046A                     PWM1S1CFG       equ	1130	;# 
   813   00046B                     PWM1S1P1        equ	1131	;# 
   814   00046B                     PWM1S1P1L       equ	1131	;# 
   815   00046C                     PWM1S1P1H       equ	1132	;# 
   816   00046D                     PWM1S1P2        equ	1133	;# 
   817   00046D                     PWM1S1P2L       equ	1133	;# 
   818   00046E                     PWM1S1P2H       equ	1134	;# 
   819   00046F                     PWM2ERS         equ	1135	;# 
   820   000470                     PWM2CLK         equ	1136	;# 
   821   000471                     PWM2LDS         equ	1137	;# 
   822   000472                     PWM2PR          equ	1138	;# 
   823   000472                     PWM2PRL         equ	1138	;# 
   824   000473                     PWM2PRH         equ	1139	;# 
   825   000474                     PWM2CPRE        equ	1140	;# 
   826   000475                     PWM2PIPOS       equ	1141	;# 
   827   000476                     PWM2GIR         equ	1142	;# 
   828   000477                     PWM2GIE         equ	1143	;# 
   829   000478                     PWM2CON         equ	1144	;# 
   830   000479                     PWM2S1CFG       equ	1145	;# 
   831   00047A                     PWM2S1P1        equ	1146	;# 
   832   00047A                     PWM2S1P1L       equ	1146	;# 
   833   00047B                     PWM2S1P1H       equ	1147	;# 
   834   00047C                     PWM2S1P2        equ	1148	;# 
   835   00047C                     PWM2S1P2L       equ	1148	;# 
   836   00047D                     PWM2S1P2H       equ	1149	;# 
   837   00047E                     PWM3ERS         equ	1150	;# 
   838   00047F                     PWM3CLK         equ	1151	;# 
   839   000480                     PWM3LDS         equ	1152	;# 
   840   000481                     PWM3PR          equ	1153	;# 
   841   000481                     PWM3PRL         equ	1153	;# 
   842   000482                     PWM3PRH         equ	1154	;# 
   843   000483                     PWM3CPRE        equ	1155	;# 
   844   000484                     PWM3PIPOS       equ	1156	;# 
   845   000485                     PWM3GIR         equ	1157	;# 
   846   000486                     PWM3GIE         equ	1158	;# 
   847   000487                     PWM3CON         equ	1159	;# 
   848   000488                     PWM3S1CFG       equ	1160	;# 
   849   000489                     PWM3S1P1        equ	1161	;# 
   850   000489                     PWM3S1P1L       equ	1161	;# 
   851   00048A                     PWM3S1P1H       equ	1162	;# 
   852   00048B                     PWM3S1P2        equ	1163	;# 
   853   00048B                     PWM3S1P2L       equ	1163	;# 
   854   00048C                     PWM3S1P2H       equ	1164	;# 
   855   00049C                     PWMLOAD         equ	1180	;# 
   856   00049D                     PWMEN           equ	1181	;# 
   857   00049E                     PIE0            equ	1182	;# 
   858   00049F                     PIE1            equ	1183	;# 
   859   0004A0                     PIE2            equ	1184	;# 
   860   0004A1                     PIE3            equ	1185	;# 
   861   0004A2                     PIE4            equ	1186	;# 
   862   0004A3                     PIE5            equ	1187	;# 
   863   0004A4                     PIE6            equ	1188	;# 
   864   0004A5                     PIE7            equ	1189	;# 
   865   0004A6                     PIE8            equ	1190	;# 
   866   0004A7                     PIE9            equ	1191	;# 
   867   0004A8                     PIE10           equ	1192	;# 
   868   0004A9                     PIE11           equ	1193	;# 
   869   0004AA                     PIE12           equ	1194	;# 
   870   0004AB                     PIE13           equ	1195	;# 
   871   0004AC                     PIE14           equ	1196	;# 
   872   0004AD                     PIE15           equ	1197	;# 
   873   0004AE                     PIR0            equ	1198	;# 
   874   0004AF                     PIR1            equ	1199	;# 
   875   0004B0                     PIR2            equ	1200	;# 
   876   0004B1                     PIR3            equ	1201	;# 
   877   0004B2                     PIR4            equ	1202	;# 
   878   0004B3                     PIR5            equ	1203	;# 
   879   0004B4                     PIR6            equ	1204	;# 
   880   0004B5                     PIR7            equ	1205	;# 
   881   0004B6                     PIR8            equ	1206	;# 
   882   0004B7                     PIR9            equ	1207	;# 
   883   0004B8                     PIR10           equ	1208	;# 
   884   0004B9                     PIR11           equ	1209	;# 
   885   0004BA                     PIR12           equ	1210	;# 
   886   0004BB                     PIR13           equ	1211	;# 
   887   0004BC                     PIR14           equ	1212	;# 
   888   0004BD                     PIR15           equ	1213	;# 
   889   0004BE                     LATA            equ	1214	;# 
   890   0004BF                     LATB            equ	1215	;# 
   891   0004C0                     LATC            equ	1216	;# 
   892   0004C1                     LATD            equ	1217	;# 
   893   0004C2                     LATE            equ	1218	;# 
   894   0004C3                     LATF            equ	1219	;# 
   895   0004C6                     TRISA           equ	1222	;# 
   896   0004C7                     TRISB           equ	1223	;# 
   897   0004C8                     TRISC           equ	1224	;# 
   898   0004C9                     TRISD           equ	1225	;# 
   899   0004CA                     TRISE           equ	1226	;# 
   900   0004CB                     TRISF           equ	1227	;# 
   901   0004CE                     PORTA           equ	1230	;# 
   902   0004CF                     PORTB           equ	1231	;# 
   903   0004D0                     PORTC           equ	1232	;# 
   904   0004D1                     PORTD           equ	1233	;# 
   905   0004D2                     PORTE           equ	1234	;# 
   906   0004D3                     PORTF           equ	1235	;# 
   907   0004D6                     INTCON0         equ	1238	;# 
   908   0004D7                     INTCON1         equ	1239	;# 
   909   0004D8                     STATUS          equ	1240	;# 
   910   0004D9                     FSR2            equ	1241	;# 
   911   0004D9                     FSR2L           equ	1241	;# 
   912   0004DA                     FSR2H           equ	1242	;# 
   913   0004DB                     PLUSW2          equ	1243	;# 
   914   0004DC                     PREINC2         equ	1244	;# 
   915   0004DD                     POSTDEC2        equ	1245	;# 
   916   0004DE                     POSTINC2        equ	1246	;# 
   917   0004DF                     INDF2           equ	1247	;# 
   918   0004E0                     BSR             equ	1248	;# 
   919   0004E1                     FSR1            equ	1249	;# 
   920   0004E1                     FSR1L           equ	1249	;# 
   921   0004E2                     FSR1H           equ	1250	;# 
   922   0004E3                     PLUSW1          equ	1251	;# 
   923   0004E4                     PREINC1         equ	1252	;# 
   924   0004E5                     POSTDEC1        equ	1253	;# 
   925   0004E6                     POSTINC1        equ	1254	;# 
   926   0004E7                     INDF1           equ	1255	;# 
   927   0004E8                     WREG            equ	1256	;# 
   928   0004E9                     FSR0            equ	1257	;# 
   929   0004E9                     FSR0L           equ	1257	;# 
   930   0004EA                     FSR0H           equ	1258	;# 
   931   0004EB                     PLUSW0          equ	1259	;# 
   932   0004EC                     PREINC0         equ	1260	;# 
   933   0004ED                     POSTDEC0        equ	1261	;# 
   934   0004EE                     POSTINC0        equ	1262	;# 
   935   0004EF                     INDF0           equ	1263	;# 
   936   0004F0                     PCON0           equ	1264	;# 
   937   0004F1                     PCON1           equ	1265	;# 
   938   0004F2                     CPUDOZE         equ	1266	;# 
   939   0004F3                     PROD            equ	1267	;# 
   940   0004F3                     PRODL           equ	1267	;# 
   941   0004F4                     PRODH           equ	1268	;# 
   942   0004F5                     TABLAT          equ	1269	;# 
   943   0004F6                     TBLPTR          equ	1270	;# 
   944   0004F6                     TBLPTRL         equ	1270	;# 
   945   0004F7                     TBLPTRH         equ	1271	;# 
   946   0004F8                     TBLPTRU         equ	1272	;# 
   947   0004F9                     PCLAT           equ	1273	;# 
   948   0004F9                     PCL             equ	1273	;# 
   949   0004FA                     PCLATH          equ	1274	;# 
   950   0004FB                     PCLATU          equ	1275	;# 
   951   0004FC                     STKPTR          equ	1276	;# 
   952   0004FD                     TOS             equ	1277	;# 
   953   0004FD                     TOSL            equ	1277	;# 
   954   0004FE                     TOSH            equ	1278	;# 
   955   0004FF                     TOSU            equ	1279	;# 
   956   000039                     CLKRCON         equ	57	;# 
   957   00003A                     CLKRCLK         equ	58	;# 
   958   000040                     NVMCON0         equ	64	;# 
   959   000041                     NVMCON1         equ	65	;# 
   960   000042                     NVMLOCK         equ	66	;# 
   961   000043                     NVMADR          equ	67	;# 
   962   000043                     NVMADRL         equ	67	;# 
   963   000044                     NVMADRH         equ	68	;# 
   964   000045                     NVMADRU         equ	69	;# 
   965   000046                     NVMDAT          equ	70	;# 
   966   000046                     NVMDATL         equ	70	;# 
   967   000047                     NVMDATH         equ	71	;# 
   968   000048                     VREGCON         equ	72	;# 
   969   000049                     BORCON          equ	73	;# 
   970   00004A                     HLVDCON0        equ	74	;# 
   971   00004B                     HLVDCON1        equ	75	;# 
   972   00004C                     ZCDCON          equ	76	;# 
   973   000060                     PMD0            equ	96	;# 
   974   000061                     PMD1            equ	97	;# 
   975   000063                     PMD3            equ	99	;# 
   976   000064                     PMD4            equ	100	;# 
   977   000065                     PMD5            equ	101	;# 
   978   000066                     PMD6            equ	102	;# 
   979   000067                     PMD7            equ	103	;# 
   980   000068                     PMD8            equ	104	;# 
   981   00006A                     MD1CON0         equ	106	;# 
   982   00006B                     MD1CON1         equ	107	;# 
   983   00006C                     MD1SRC          equ	108	;# 
   984   00006D                     MD1CARL         equ	109	;# 
   985   00006E                     MD1CARH         equ	110	;# 
   986   00006F                     CMOUT           equ	111	;# 
   987   000070                     CM1CON0         equ	112	;# 
   988   000071                     CM1CON1         equ	113	;# 
   989   000072                     CM1NCH          equ	114	;# 
   990   000073                     CM1PCH          equ	115	;# 
   991   000074                     CM2CON0         equ	116	;# 
   992   000075                     CM2CON1         equ	117	;# 
   993   000076                     CM2NCH          equ	118	;# 
   994   000077                     CM2PCH          equ	119	;# 
   995   000078                     WDTCON0         equ	120	;# 
   996   000079                     WDTCON1         equ	121	;# 
   997   00007A                     WDTPS           equ	122	;# 
   998   00007A                     WDTPSL          equ	122	;# 
   999   00007B                     WDTPSH          equ	123	;# 
  1000   00007C                     WDTTMR          equ	124	;# 
  1001   00007D                     DAC1DAT         equ	125	;# 
  1002   00007D                     DAC1DATL        equ	125	;# 
  1003   00007F                     DAC1CON         equ	127	;# 
  1004   000080                     SPI1RXB         equ	128	;# 
  1005   000081                     SPI1TXB         equ	129	;# 
  1006   000082                     SPI1TCNT        equ	130	;# 
  1007   000082                     SPI1TCNTL       equ	130	;# 
  1008   000083                     SPI1TCNTH       equ	131	;# 
  1009   000084                     SPI1CON0        equ	132	;# 
  1010   000085                     SPI1CON1        equ	133	;# 
  1011   000086                     SPI1CON2        equ	134	;# 
  1012   000087                     SPI1STATUS      equ	135	;# 
  1013   000088                     SPI1TWIDTH      equ	136	;# 
  1014   000089                     SPI1BAUD        equ	137	;# 
  1015   00008A                     SPI1INTF        equ	138	;# 
  1016   00008B                     SPI1INTE        equ	139	;# 
  1017   00008C                     SPI1CLK         equ	140	;# 
  1018   00008D                     SPI2RXB         equ	141	;# 
  1019   00008E                     SPI2TXB         equ	142	;# 
  1020   00008F                     SPI2TCNT        equ	143	;# 
  1021   00008F                     SPI2TCNTL       equ	143	;# 
  1022   000090                     SPI2TCNTH       equ	144	;# 
  1023   000091                     SPI2CON0        equ	145	;# 
  1024   000092                     SPI2CON1        equ	146	;# 
  1025   000093                     SPI2CON2        equ	147	;# 
  1026   000094                     SPI2STATUS      equ	148	;# 
  1027   000095                     SPI2TWIDTH      equ	149	;# 
  1028   000096                     SPI2BAUD        equ	150	;# 
  1029   000097                     SPI2INTF        equ	151	;# 
  1030   000098                     SPI2INTE        equ	152	;# 
  1031   000099                     SPI2CLK         equ	153	;# 
  1032   0000AC                     ACTCON          equ	172	;# 
  1033   0000AD                     OSCCON1         equ	173	;# 
  1034   0000AE                     OSCCON2         equ	174	;# 
  1035   0000AF                     OSCCON3         equ	175	;# 
  1036   0000B0                     OSCTUNE         equ	176	;# 
  1037   0000B1                     OSCFRQ          equ	177	;# 
  1038   0000B1                     OSCFREQ         equ	177	;# 
  1039   0000B2                     OSCSTAT         equ	178	;# 
  1040   0000B2                     OSCSTAT1        equ	178	;# 
  1041   0000B3                     OSCEN           equ	179	;# 
  1042   0000B4                     PRLOCK          equ	180	;# 
  1043   0000B5                     SCANPR          equ	181	;# 
  1044   0000B6                     DMA1PR          equ	182	;# 
  1045   0000B7                     DMA2PR          equ	183	;# 
  1046   0000B8                     DMA3PR          equ	184	;# 
  1047   0000B9                     DMA4PR          equ	185	;# 
  1048   0000BA                     DMA5PR          equ	186	;# 
  1049   0000BB                     DMA6PR          equ	187	;# 
  1050   0000BE                     MAINPR          equ	190	;# 
  1051   0000BF                     ISRPR           equ	191	;# 
  1052   0000D4                     CLCDATA         equ	212	;# 
  1053   0000D5                     CLCSELECT       equ	213	;# 
  1054   0000D6                     CLCnCON         equ	214	;# 
  1055   0000D7                     CLCnPOL         equ	215	;# 
  1056   0000D8                     CLCnSEL0        equ	216	;# 
  1057   0000D9                     CLCnSEL1        equ	217	;# 
  1058   0000DA                     CLCnSEL2        equ	218	;# 
  1059   0000DB                     CLCnSEL3        equ	219	;# 
  1060   0000DC                     CLCnGLS0        equ	220	;# 
  1061   0000DD                     CLCnGLS1        equ	221	;# 
  1062   0000DE                     CLCnGLS2        equ	222	;# 
  1063   0000DF                     CLCnGLS3        equ	223	;# 
  1064   0000E8                     DMASELECT       equ	232	;# 
  1065   0000E9                     DMAnBUF         equ	233	;# 
  1066   0000EA                     DMAnDCNT        equ	234	;# 
  1067   0000EA                     DMAnDCNTL       equ	234	;# 
  1068   0000EB                     DMAnDCNTH       equ	235	;# 
  1069   0000EC                     DMAnDPTR        equ	236	;# 
  1070   0000EC                     DMAnDPTRL       equ	236	;# 
  1071   0000ED                     DMAnDPTRH       equ	237	;# 
  1072   0000EE                     DMAnDSZ         equ	238	;# 
  1073   0000EE                     DMAnDSZL        equ	238	;# 
  1074   0000EF                     DMAnDSZH        equ	239	;# 
  1075   0000F0                     DMAnDSA         equ	240	;# 
  1076   0000F0                     DMAnDSAL        equ	240	;# 
  1077   0000F1                     DMAnDSAH        equ	241	;# 
  1078   0000F2                     DMAnSCNT        equ	242	;# 
  1079   0000F2                     DMAnSCNTL       equ	242	;# 
  1080   0000F3                     DMAnSCNTH       equ	243	;# 
  1081   0000F4                     DMAnSPTR        equ	244	;# 
  1082   0000F4                     DMAnSPTRL       equ	244	;# 
  1083   0000F5                     DMAnSPTRH       equ	245	;# 
  1084   0000F6                     DMAnSPTRU       equ	246	;# 
  1085   0000F7                     DMAnSSZ         equ	247	;# 
  1086   0000F7                     DMAnSSZL        equ	247	;# 
  1087   0000F8                     DMAnSSZH        equ	248	;# 
  1088   0000F9                     DMAnSSA         equ	249	;# 
  1089   0000F9                     DMAnSSAL        equ	249	;# 
  1090   0000FA                     DMAnSSAH        equ	250	;# 
  1091   0000FB                     DMAnSSAU        equ	251	;# 
  1092   0000FC                     DMAnCON0        equ	252	;# 
  1093   0000FD                     DMAnCON1        equ	253	;# 
  1094   0000FE                     DMAnAIRQ        equ	254	;# 
  1095   0000FF                     DMAnSIRQ        equ	255	;# 
  1096   000200                     PPSLOCK         equ	512	;# 
  1097   000201                     RA0PPS          equ	513	;# 
  1098   000202                     RA1PPS          equ	514	;# 
  1099   000203                     RA2PPS          equ	515	;# 
  1100   000204                     RA3PPS          equ	516	;# 
  1101   000205                     RA4PPS          equ	517	;# 
  1102   000206                     RA5PPS          equ	518	;# 
  1103   000207                     RA6PPS          equ	519	;# 
  1104   000208                     RA7PPS          equ	520	;# 
  1105   000209                     RB0PPS          equ	521	;# 
  1106   00020A                     RB1PPS          equ	522	;# 
  1107   00020B                     RB2PPS          equ	523	;# 
  1108   00020C                     RB3PPS          equ	524	;# 
  1109   00020D                     RB4PPS          equ	525	;# 
  1110   00020E                     RB5PPS          equ	526	;# 
  1111   00020F                     RB6PPS          equ	527	;# 
  1112   000210                     RB7PPS          equ	528	;# 
  1113   000211                     RC0PPS          equ	529	;# 
  1114   000212                     RC1PPS          equ	530	;# 
  1115   000213                     RC2PPS          equ	531	;# 
  1116   000214                     RC3PPS          equ	532	;# 
  1117   000215                     RC4PPS          equ	533	;# 
  1118   000216                     RC5PPS          equ	534	;# 
  1119   000217                     RC6PPS          equ	535	;# 
  1120   000218                     RC7PPS          equ	536	;# 
  1121   000219                     RD0PPS          equ	537	;# 
  1122   00021A                     RD1PPS          equ	538	;# 
  1123   00021B                     RD2PPS          equ	539	;# 
  1124   00021C                     RD3PPS          equ	540	;# 
  1125   00021D                     RD4PPS          equ	541	;# 
  1126   00021E                     RD5PPS          equ	542	;# 
  1127   00021F                     RD6PPS          equ	543	;# 
  1128   000220                     RD7PPS          equ	544	;# 
  1129   000221                     RE0PPS          equ	545	;# 
  1130   000222                     RE1PPS          equ	546	;# 
  1131   000223                     RE2PPS          equ	547	;# 
  1132   000229                     RF0PPS          equ	553	;# 
  1133   00022A                     RF1PPS          equ	554	;# 
  1134   00022B                     RF2PPS          equ	555	;# 
  1135   00022C                     RF3PPS          equ	556	;# 
  1136   00022D                     RF4PPS          equ	557	;# 
  1137   00022E                     RF5PPS          equ	558	;# 
  1138   00022F                     RF6PPS          equ	559	;# 
  1139   000230                     RF7PPS          equ	560	;# 
  1140   00023E                     INT0PPS         equ	574	;# 
  1141   00023F                     INT1PPS         equ	575	;# 
  1142   000240                     INT2PPS         equ	576	;# 
  1143   000241                     T0CKIPPS        equ	577	;# 
  1144   000242                     T1CKIPPS        equ	578	;# 
  1145   000243                     T1GPPS          equ	579	;# 
  1146   000244                     T3CKIPPS        equ	580	;# 
  1147   000245                     T3GPPS          equ	581	;# 
  1148   000246                     T5CKIPPS        equ	582	;# 
  1149   000247                     T5GPPS          equ	583	;# 
  1150   000248                     T2INPPS         equ	584	;# 
  1151   000249                     T4INPPS         equ	585	;# 
  1152   00024A                     T6INPPS         equ	586	;# 
  1153   00024F                     CCP1PPS         equ	591	;# 
  1154   000250                     CCP2PPS         equ	592	;# 
  1155   000251                     CCP3PPS         equ	593	;# 
  1156   000253                     PWM1ERSPPS      equ	595	;# 
  1157   000254                     PWM2ERSPPS      equ	596	;# 
  1158   000255                     PWM3ERSPPS      equ	597	;# 
  1159   000257                     PWMIN0PPS       equ	599	;# 
  1160   000258                     PWMIN1PPS       equ	600	;# 
  1161   000259                     SMT1WINPPS      equ	601	;# 
  1162   00025A                     SMT1SIGPPS      equ	602	;# 
  1163   00025B                     CWG1PPS         equ	603	;# 
  1164   00025B                     CWG1INPPS       equ	603	;# 
  1165   00025C                     CWG2PPS         equ	604	;# 
  1166   00025C                     CWG2INPPS       equ	604	;# 
  1167   00025D                     CWG3PPS         equ	605	;# 
  1168   00025D                     CWG3INPPS       equ	605	;# 
  1169   00025E                     MD1CARLPPS      equ	606	;# 
  1170   00025E                     MDCARLPPS       equ	606	;# 
  1171   00025F                     MD1CARHPPS      equ	607	;# 
  1172   00025F                     MDCARHPPS       equ	607	;# 
  1173   000260                     MD1SRCPPS       equ	608	;# 
  1174   000260                     MDSRCPPS        equ	608	;# 
  1175   000261                     CLCIN0PPS       equ	609	;# 
  1176   000262                     CLCIN1PPS       equ	610	;# 
  1177   000263                     CLCIN2PPS       equ	611	;# 
  1178   000264                     CLCIN3PPS       equ	612	;# 
  1179   000265                     CLCIN4PPS       equ	613	;# 
  1180   000266                     CLCIN5PPS       equ	614	;# 
  1181   000267                     CLCIN6PPS       equ	615	;# 
  1182   000268                     CLCIN7PPS       equ	616	;# 
  1183   000269                     ADACTPPS        equ	617	;# 
  1184   00026A                     SPI1SCKPPS      equ	618	;# 
  1185   00026B                     SPI1SDIPPS      equ	619	;# 
  1186   00026C                     SPI1SSPPS       equ	620	;# 
  1187   00026D                     SPI2SCKPPS      equ	621	;# 
  1188   00026E                     SPI2SDIPPS      equ	622	;# 
  1189   00026F                     SPI2SSPPS       equ	623	;# 
  1190   000270                     I2C1SDAPPS      equ	624	;# 
  1191   000271                     I2C1SCLPPS      equ	625	;# 
  1192   000272                     U1RXPPS         equ	626	;# 
  1193   000273                     U1CTSPPS        equ	627	;# 
  1194   000274                     U2RXPPS         equ	628	;# 
  1195   000275                     U2CTSPPS        equ	629	;# 
  1196   000276                     U3RXPPS         equ	630	;# 
  1197   000277                     U3CTSPPS        equ	631	;# 
  1198   000278                     U4RXPPS         equ	632	;# 
  1199   000279                     U4CTSPPS        equ	633	;# 
  1200   00027A                     U5RXPPS         equ	634	;# 
  1201   00027B                     U5CTSPPS        equ	635	;# 
  1202   000286                     RC4I2C          equ	646	;# 
  1203   000287                     RC3I2C          equ	647	;# 
  1204   000288                     RB2I2C          equ	648	;# 
  1205   000289                     RB1I2C          equ	649	;# 
  1206   00028B                     I2C1RXB         equ	651	;# 
  1207   00028C                     I2C1TXB         equ	652	;# 
  1208   00028D                     I2C1CNT         equ	653	;# 
  1209   00028E                     I2C1ADB0        equ	654	;# 
  1210   00028F                     I2C1ADB1        equ	655	;# 
  1211   000290                     I2C1ADR0        equ	656	;# 
  1212   000291                     I2C1ADR1        equ	657	;# 
  1213   000292                     I2C1ADR2        equ	658	;# 
  1214   000293                     I2C1ADR3        equ	659	;# 
  1215   000294                     I2C1CON0        equ	660	;# 
  1216   000295                     I2C1CON1        equ	661	;# 
  1217   000296                     I2C1CON2        equ	662	;# 
  1218   000297                     I2C1ERR         equ	663	;# 
  1219   000298                     I2C1STAT0       equ	664	;# 
  1220   000299                     I2C1STAT1       equ	665	;# 
  1221   00029A                     I2C1PIR         equ	666	;# 
  1222   00029B                     I2C1PIE         equ	667	;# 
  1223   00029C                     I2C1CLK         equ	668	;# 
  1224   00029D                     I2C1BTO         equ	669	;# 
  1225   0002A1                     U1RXB           equ	673	;# 
  1226   0002A1                     U1RXBL          equ	673	;# 
  1227   0002A2                     U1RXCHK         equ	674	;# 
  1228   0002A3                     U1TXB           equ	675	;# 
  1229   0002A3                     U1TXBL          equ	675	;# 
  1230   0002A4                     U1TXCHK         equ	676	;# 
  1231   0002A5                     U1P1            equ	677	;# 
  1232   0002A5                     U1P1L           equ	677	;# 
  1233   0002A6                     U1P1H           equ	678	;# 
  1234   0002A7                     U1P2            equ	679	;# 
  1235   0002A7                     U1P2L           equ	679	;# 
  1236   0002A8                     U1P2H           equ	680	;# 
  1237   0002A9                     U1P3            equ	681	;# 
  1238   0002A9                     U1P3L           equ	681	;# 
  1239   0002AA                     U1P3H           equ	682	;# 
  1240   0002AB                     U1CON0          equ	683	;# 
  1241   0002AC                     U1CON1          equ	684	;# 
  1242   0002AD                     U1CON2          equ	685	;# 
  1243   0002AE                     U1BRG           equ	686	;# 
  1244   0002AE                     U1BRGL          equ	686	;# 
  1245   0002AF                     U1BRGH          equ	687	;# 
  1246   0002B0                     U1FIFO          equ	688	;# 
  1247   0002B1                     U1UIR           equ	689	;# 
  1248   0002B2                     U1ERRIR         equ	690	;# 
  1249   0002B3                     U1ERRIE         equ	691	;# 
  1250   0002B4                     U2RXB           equ	692	;# 
  1251   0002B4                     U2RXBL          equ	692	;# 
  1252   0002B6                     U2TXB           equ	694	;# 
  1253   0002B6                     U2TXBL          equ	694	;# 
  1254   0002B8                     U2P1            equ	696	;# 
  1255   0002B8                     U2P1L           equ	696	;# 
  1256   0002BA                     U2P2            equ	698	;# 
  1257   0002BA                     U2P2L           equ	698	;# 
  1258   0002BC                     U2P3            equ	700	;# 
  1259   0002BC                     U2P3L           equ	700	;# 
  1260   0002BE                     U2CON0          equ	702	;# 
  1261   0002BF                     U2CON1          equ	703	;# 
  1262   0002C0                     U2CON2          equ	704	;# 
  1263   0002C1                     U2BRG           equ	705	;# 
  1264   0002C1                     U2BRGL          equ	705	;# 
  1265   0002C2                     U2BRGH          equ	706	;# 
  1266   0002C3                     U2FIFO          equ	707	;# 
  1267   0002C4                     U2UIR           equ	708	;# 
  1268   0002C5                     U2ERRIR         equ	709	;# 
  1269   0002C6                     U2ERRIE         equ	710	;# 
  1270   0002C7                     U3RXB           equ	711	;# 
  1271   0002C7                     U3RXBL          equ	711	;# 
  1272   0002C9                     U3TXB           equ	713	;# 
  1273   0002C9                     U3TXBL          equ	713	;# 
  1274   0002CB                     U3P1            equ	715	;# 
  1275   0002CB                     U3P1L           equ	715	;# 
  1276   0002CD                     U3P2            equ	717	;# 
  1277   0002CD                     U3P2L           equ	717	;# 
  1278   0002CF                     U3P3            equ	719	;# 
  1279   0002CF                     U3P3L           equ	719	;# 
  1280   0002D1                     U3CON0          equ	721	;# 
  1281   0002D2                     U3CON1          equ	722	;# 
  1282   0002D3                     U3CON2          equ	723	;# 
  1283   0002D4                     U3BRG           equ	724	;# 
  1284   0002D4                     U3BRGL          equ	724	;# 
  1285   0002D5                     U3BRGH          equ	725	;# 
  1286   0002D6                     U3FIFO          equ	726	;# 
  1287   0002D7                     U3UIR           equ	727	;# 
  1288   0002D8                     U3ERRIR         equ	728	;# 
  1289   0002D9                     U3ERRIE         equ	729	;# 
  1290   0002DA                     U4RXB           equ	730	;# 
  1291   0002DA                     U4RXBL          equ	730	;# 
  1292   0002DC                     U4TXB           equ	732	;# 
  1293   0002DC                     U4TXBL          equ	732	;# 
  1294   0002DE                     U4P1            equ	734	;# 
  1295   0002DE                     U4P1L           equ	734	;# 
  1296   0002E0                     U4P2            equ	736	;# 
  1297   0002E0                     U4P2L           equ	736	;# 
  1298   0002E2                     U4P3            equ	738	;# 
  1299   0002E2                     U4P3L           equ	738	;# 
  1300   0002E4                     U4CON0          equ	740	;# 
  1301   0002E5                     U4CON1          equ	741	;# 
  1302   0002E6                     U4CON2          equ	742	;# 
  1303   0002E7                     U4BRG           equ	743	;# 
  1304   0002E7                     U4BRGL          equ	743	;# 
  1305   0002E8                     U4BRGH          equ	744	;# 
  1306   0002E9                     U4FIFO          equ	745	;# 
  1307   0002EA                     U4UIR           equ	746	;# 
  1308   0002EB                     U4ERRIR         equ	747	;# 
  1309   0002EC                     U4ERRIE         equ	748	;# 
  1310   0002ED                     U5RXB           equ	749	;# 
  1311   0002ED                     U5RXBL          equ	749	;# 
  1312   0002EF                     U5TXB           equ	751	;# 
  1313   0002EF                     U5TXBL          equ	751	;# 
  1314   0002F1                     U5P1            equ	753	;# 
  1315   0002F1                     U5P1L           equ	753	;# 
  1316   0002F3                     U5P2            equ	755	;# 
  1317   0002F3                     U5P2L           equ	755	;# 
  1318   0002F5                     U5P3            equ	757	;# 
  1319   0002F5                     U5P3L           equ	757	;# 
  1320   0002F7                     U5CON0          equ	759	;# 
  1321   0002F8                     U5CON1          equ	760	;# 
  1322   0002F9                     U5CON2          equ	761	;# 
  1323   0002FA                     U5BRG           equ	762	;# 
  1324   0002FA                     U5BRGL          equ	762	;# 
  1325   0002FB                     U5BRGH          equ	763	;# 
  1326   0002FC                     U5FIFO          equ	764	;# 
  1327   0002FD                     U5UIR           equ	765	;# 
  1328   0002FE                     U5ERRIR         equ	766	;# 
  1329   0002FF                     U5ERRIE         equ	767	;# 
  1330   000300                     SMT1TMR         equ	768	;# 
  1331   000300                     SMT1TMRL        equ	768	;# 
  1332   000301                     SMT1TMRH        equ	769	;# 
  1333   000302                     SMT1TMRU        equ	770	;# 
  1334   000303                     SMT1CPR         equ	771	;# 
  1335   000303                     SMT1CPRL        equ	771	;# 
  1336   000304                     SMT1CPRH        equ	772	;# 
  1337   000305                     SMT1CPRU        equ	773	;# 
  1338   000306                     SMT1CPW         equ	774	;# 
  1339   000306                     SMT1CPWL        equ	774	;# 
  1340   000307                     SMT1CPWH        equ	775	;# 
  1341   000308                     SMT1CPWU        equ	776	;# 
  1342   000309                     SMT1PR          equ	777	;# 
  1343   000309                     SMT1PRL         equ	777	;# 
  1344   00030A                     SMT1PRH         equ	778	;# 
  1345   00030B                     SMT1PRU         equ	779	;# 
  1346   00030C                     SMT1CON0        equ	780	;# 
  1347   00030D                     SMT1CON1        equ	781	;# 
  1348   00030E                     SMT1STAT        equ	782	;# 
  1349   00030F                     SMT1CLK         equ	783	;# 
  1350   000310                     SMT1SIG         equ	784	;# 
  1351   000311                     SMT1WIN         equ	785	;# 
  1352   000318                     TMR0L           equ	792	;# 
  1353   000318                     TMR0            equ	792	;# 
  1354   000319                     TMR0H           equ	793	;# 
  1355   000319                     PR0             equ	793	;# 
  1356   00031A                     T0CON0          equ	794	;# 
  1357   00031B                     T0CON1          equ	795	;# 
  1358   00031C                     TMR1            equ	796	;# 
  1359   00031C                     TMR1L           equ	796	;# 
  1360   00031D                     TMR1H           equ	797	;# 
  1361   00031E                     T1CON           equ	798	;# 
  1362   00031E                     TMR1CON         equ	798	;# 
  1363   00031F                     T1GCON          equ	799	;# 
  1364   00031F                     TMR1GCON        equ	799	;# 
  1365   000320                     T1GATE          equ	800	;# 
  1366   000320                     TMR1GATE        equ	800	;# 
  1367   000321                     T1CLK           equ	801	;# 
  1368   000321                     TMR1CLK         equ	801	;# 
  1369   000321                     PR1             equ	801	;# 
  1370   000322                     T2TMR           equ	802	;# 
  1371   000322                     TMR2            equ	802	;# 
  1372   000323                     T2PR            equ	803	;# 
  1373   000323                     PR2             equ	803	;# 
  1374   000324                     T2CON           equ	804	;# 
  1375   000325                     T2HLT           equ	805	;# 
  1376   000326                     T2CLKCON        equ	806	;# 
  1377   000326                     T2CLK           equ	806	;# 
  1378   000327                     T2RST           equ	807	;# 
  1379   000328                     TMR3            equ	808	;# 
  1380   000328                     TMR3L           equ	808	;# 
  1381   000329                     TMR3H           equ	809	;# 
  1382   00032A                     T3CON           equ	810	;# 
  1383   00032A                     TMR3CON         equ	810	;# 
  1384   00032B                     T3GCON          equ	811	;# 
  1385   00032B                     TMR3GCON        equ	811	;# 
  1386   00032C                     T3GATE          equ	812	;# 
  1387   00032C                     TMR3GATE        equ	812	;# 
  1388   00032D                     T3CLK           equ	813	;# 
  1389   00032D                     TMR3CLK         equ	813	;# 
  1390   00032D                     PR3             equ	813	;# 
  1391   00032E                     T4TMR           equ	814	;# 
  1392   00032E                     TMR4            equ	814	;# 
  1393   00032F                     T4PR            equ	815	;# 
  1394   00032F                     PR4             equ	815	;# 
  1395   000330                     T4CON           equ	816	;# 
  1396   000331                     T4HLT           equ	817	;# 
  1397   000332                     T4CLKCON        equ	818	;# 
  1398   000332                     T4CLK           equ	818	;# 
  1399   000333                     T4RST           equ	819	;# 
  1400   000334                     TMR5            equ	820	;# 
  1401   000334                     TMR5L           equ	820	;# 
  1402   000335                     TMR5H           equ	821	;# 
  1403   000336                     T5CON           equ	822	;# 
  1404   000336                     TMR5CON         equ	822	;# 
  1405   000337                     T5GCON          equ	823	;# 
  1406   000337                     TMR5GCON        equ	823	;# 
  1407   000338                     T5GATE          equ	824	;# 
  1408   000338                     TMR5GATE        equ	824	;# 
  1409   000339                     T5CLK           equ	825	;# 
  1410   000339                     TMR5CLK         equ	825	;# 
  1411   000339                     PR5             equ	825	;# 
  1412   00033A                     T6TMR           equ	826	;# 
  1413   00033A                     TMR6            equ	826	;# 
  1414   00033B                     T6PR            equ	827	;# 
  1415   00033B                     PR6             equ	827	;# 
  1416   00033C                     T6CON           equ	828	;# 
  1417   00033D                     T6HLT           equ	829	;# 
  1418   00033E                     T6CLKCON        equ	830	;# 
  1419   00033E                     T6CLK           equ	830	;# 
  1420   00033F                     T6RST           equ	831	;# 
  1421   000340                     CCPR1           equ	832	;# 
  1422   000340                     CCPR1L          equ	832	;# 
  1423   000341                     CCPR1H          equ	833	;# 
  1424   000342                     CCP1CON         equ	834	;# 
  1425   000343                     CCP1CAP         equ	835	;# 
  1426   000344                     CCPR2           equ	836	;# 
  1427   000344                     CCPR2L          equ	836	;# 
  1428   000345                     CCPR2H          equ	837	;# 
  1429   000346                     CCP2CON         equ	838	;# 
  1430   000347                     CCP2CAP         equ	839	;# 
  1431   000348                     CCPR3           equ	840	;# 
  1432   000348                     CCPR3L          equ	840	;# 
  1433   000349                     CCPR3H          equ	841	;# 
  1434   00034A                     CCP3CON         equ	842	;# 
  1435   00034B                     CCP3CAP         equ	843	;# 
  1436   00034C                     CCPTMRS0        equ	844	;# 
  1437   00034F                     CRCDATA         equ	847	;# 
  1438   00034F                     CRCDATL         equ	847	;# 
  1439   000350                     CRCDATH         equ	848	;# 
  1440   000351                     CRCACC          equ	849	;# 
  1441   000351                     CRCACCL         equ	849	;# 
  1442   000352                     CRCACCH         equ	850	;# 
  1443   000353                     CRCSHFT         equ	851	;# 
  1444   000353                     CRCSHIFTL       equ	851	;# 
  1445   000354                     CRCSHIFTH       equ	852	;# 
  1446   000355                     CRCXOR          equ	853	;# 
  1447   000355                     CRCXORL         equ	853	;# 
  1448   000356                     CRCXORH         equ	854	;# 
  1449   000357                     CRCCON0         equ	855	;# 
  1450   000358                     CRCCON1         equ	856	;# 
  1451   00035A                     SCANLADR        equ	858	;# 
  1452   00035A                     SCANLADRL       equ	858	;# 
  1453   00035B                     SCANLADRH       equ	859	;# 
  1454   00035C                     SCANLADRU       equ	860	;# 
  1455   00035D                     SCANHADR        equ	861	;# 
  1456   00035D                     SCANHADRL       equ	861	;# 
  1457   00035E                     SCANHADRH       equ	862	;# 
  1458   00035F                     SCANHADRU       equ	863	;# 
  1459   000360                     SCANCON0        equ	864	;# 
  1460   000361                     SCANTRIG        equ	865	;# 
  1461   000362                     IPR0            equ	866	;# 
  1462   000363                     IPR1            equ	867	;# 
  1463   000364                     IPR2            equ	868	;# 
  1464   000365                     IPR3            equ	869	;# 
  1465   000366                     IPR4            equ	870	;# 
  1466   000367                     IPR5            equ	871	;# 
  1467   000368                     IPR6            equ	872	;# 
  1468   000369                     IPR7            equ	873	;# 
  1469   00036A                     IPR8            equ	874	;# 
  1470   00036B                     IPR9            equ	875	;# 
  1471   00036C                     IPR10           equ	876	;# 
  1472   00036D                     IPR11           equ	877	;# 
  1473   00036E                     IPR12           equ	878	;# 
  1474   00036F                     IPR13           equ	879	;# 
  1475   000370                     IPR14           equ	880	;# 
  1476   000371                     IPR15           equ	881	;# 
  1477   000373                     STATUS_CSHAD    equ	883	;# 
  1478   000374                     WREG_CSHAD      equ	884	;# 
  1479   000375                     BSR_CSHAD       equ	885	;# 
  1480   000376                     SHADCON         equ	886	;# 
  1481   000377                     STATUS_SHAD     equ	887	;# 
  1482   000378                     WREG_SHAD       equ	888	;# 
  1483   000379                     BSR_SHAD        equ	889	;# 
  1484   00037A                     PCLATH_SHAD     equ	890	;# 
  1485   00037B                     PCLATU_SHAD     equ	891	;# 
  1486   00037C                     FSR0SH          equ	892	;# 
  1487   00037C                     FSR0L_SHAD      equ	892	;# 
  1488   00037D                     FSR0H_SHAD      equ	893	;# 
  1489   00037E                     FSR1SH          equ	894	;# 
  1490   00037E                     FSR1L_SHAD      equ	894	;# 
  1491   00037F                     FSR1H_SHAD      equ	895	;# 
  1492   000380                     FSR2SH          equ	896	;# 
  1493   000380                     FSR2L_SHAD      equ	896	;# 
  1494   000381                     FSR2H_SHAD      equ	897	;# 
  1495   000382                     PRODSH          equ	898	;# 
  1496   000382                     PRODL_SHAD      equ	898	;# 
  1497   000383                     PRODH_SHAD      equ	899	;# 
  1498   0003BC                     CWG1CLK         equ	956	;# 
  1499   0003BC                     CWG1CLKCON      equ	956	;# 
  1500   0003BD                     CWG1ISM         equ	957	;# 
  1501   0003BD                     CWG1DAT         equ	957	;# 
  1502   0003BE                     CWG1DBR         equ	958	;# 
  1503   0003BF                     CWG1DBF         equ	959	;# 
  1504   0003C0                     CWG1CON0        equ	960	;# 
  1505   0003C1                     CWG1CON1        equ	961	;# 
  1506   0003C2                     CWG1AS0         equ	962	;# 
  1507   0003C3                     CWG1AS1         equ	963	;# 
  1508   0003C4                     CWG1STR         equ	964	;# 
  1509   0003C5                     CWG2CLK         equ	965	;# 
  1510   0003C5                     CWG2CLKCON      equ	965	;# 
  1511   0003C6                     CWG2ISM         equ	966	;# 
  1512   0003C6                     CWG2DAT         equ	966	;# 
  1513   0003C7                     CWG2DBR         equ	967	;# 
  1514   0003C8                     CWG2DBF         equ	968	;# 
  1515   0003C9                     CWG2CON0        equ	969	;# 
  1516   0003CA                     CWG2CON1        equ	970	;# 
  1517   0003CB                     CWG2AS0         equ	971	;# 
  1518   0003CC                     CWG2AS1         equ	972	;# 
  1519   0003CD                     CWG2STR         equ	973	;# 
  1520   0003CE                     CWG3CLK         equ	974	;# 
  1521   0003CE                     CWG3CLKCON      equ	974	;# 
  1522   0003CF                     CWG3ISM         equ	975	;# 
  1523   0003CF                     CWG3DAT         equ	975	;# 
  1524   0003D0                     CWG3DBR         equ	976	;# 
  1525   0003D1                     CWG3DBF         equ	977	;# 
  1526   0003D2                     CWG3CON0        equ	978	;# 
  1527   0003D3                     CWG3CON1        equ	979	;# 
  1528   0003D4                     CWG3AS0         equ	980	;# 
  1529   0003D5                     CWG3AS1         equ	981	;# 
  1530   0003D6                     CWG3STR         equ	982	;# 
  1531   0003D7                     FVRCON          equ	983	;# 
  1532   0003D8                     ADCPCON         equ	984	;# 
  1533   0003D8                     ADCP            equ	984	;# 
  1534   0003D9                     ADLTH           equ	985	;# 
  1535   0003D9                     ADLTHL          equ	985	;# 
  1536   0003DA                     ADLTHH          equ	986	;# 
  1537   0003DB                     ADUTH           equ	987	;# 
  1538   0003DB                     ADUTHL          equ	987	;# 
  1539   0003DC                     ADUTHH          equ	988	;# 
  1540   0003DD                     ADERR           equ	989	;# 
  1541   0003DD                     ADERRL          equ	989	;# 
  1542   0003DE                     ADERRH          equ	990	;# 
  1543   0003DF                     ADSTPT          equ	991	;# 
  1544   0003DF                     ADSTPTL         equ	991	;# 
  1545   0003E0                     ADSTPTH         equ	992	;# 
  1546   0003E1                     ADFLTR          equ	993	;# 
  1547   0003E1                     ADFLTRL         equ	993	;# 
  1548   0003E2                     ADFLTRH         equ	994	;# 
  1549   0003E3                     ADACC           equ	995	;# 
  1550   0003E3                     ADACCL          equ	995	;# 
  1551   0003E4                     ADACCH          equ	996	;# 
  1552   0003E5                     ADACCU          equ	997	;# 
  1553   0003E6                     ADCNT           equ	998	;# 
  1554   0003E7                     ADRPT           equ	999	;# 
  1555   0003E8                     ADPREV          equ	1000	;# 
  1556   0003E8                     ADPREVL         equ	1000	;# 
  1557   0003E9                     ADPREVH         equ	1001	;# 
  1558   0003EA                     ADRES           equ	1002	;# 
  1559   0003EA                     ADRESL          equ	1002	;# 
  1560   0003EB                     ADRESH          equ	1003	;# 
  1561   0003EC                     ADPCH           equ	1004	;# 
  1562   0003EE                     ADACQ           equ	1006	;# 
  1563   0003EE                     ADACQL          equ	1006	;# 
  1564   0003EF                     ADACQH          equ	1007	;# 
  1565   0003F0                     ADCAP           equ	1008	;# 
  1566   0003F1                     ADPRE           equ	1009	;# 
  1567   0003F1                     ADPREL          equ	1009	;# 
  1568   0003F2                     ADPREH          equ	1010	;# 
  1569   0003F3                     ADCON0          equ	1011	;# 
  1570   0003F4                     ADCON1          equ	1012	;# 
  1571   0003F5                     ADCON2          equ	1013	;# 
  1572   0003F6                     ADCON3          equ	1014	;# 
  1573   0003F7                     ADSTAT          equ	1015	;# 
  1574   0003F8                     ADREF           equ	1016	;# 
  1575   0003F9                     ADACT           equ	1017	;# 
  1576   0003FA                     ADCLK           equ	1018	;# 
  1577   000400                     ANSELA          equ	1024	;# 
  1578   000401                     WPUA            equ	1025	;# 
  1579   000402                     ODCONA          equ	1026	;# 
  1580   000403                     SLRCONA         equ	1027	;# 
  1581   000404                     INLVLA          equ	1028	;# 
  1582   000405                     IOCAP           equ	1029	;# 
  1583   000406                     IOCAN           equ	1030	;# 
  1584   000407                     IOCAF           equ	1031	;# 
  1585   000408                     ANSELB          equ	1032	;# 
  1586   000409                     WPUB            equ	1033	;# 
  1587   00040A                     ODCONB          equ	1034	;# 
  1588   00040B                     SLRCONB         equ	1035	;# 
  1589   00040C                     INLVLB          equ	1036	;# 
  1590   00040D                     IOCBP           equ	1037	;# 
  1591   00040E                     IOCBN           equ	1038	;# 
  1592   00040F                     IOCBF           equ	1039	;# 
  1593   000410                     ANSELC          equ	1040	;# 
  1594   000411                     WPUC            equ	1041	;# 
  1595   000412                     ODCONC          equ	1042	;# 
  1596   000413                     SLRCONC         equ	1043	;# 
  1597   000414                     INLVLC          equ	1044	;# 
  1598   000415                     IOCCP           equ	1045	;# 
  1599   000416                     IOCCN           equ	1046	;# 
  1600   000417                     IOCCF           equ	1047	;# 
  1601   000418                     ANSELD          equ	1048	;# 
  1602   000419                     WPUD            equ	1049	;# 
  1603   00041A                     ODCOND          equ	1050	;# 
  1604   00041B                     SLRCOND         equ	1051	;# 
  1605   00041C                     INLVLD          equ	1052	;# 
  1606   000420                     ANSELE          equ	1056	;# 
  1607   000421                     WPUE            equ	1057	;# 
  1608   000422                     ODCONE          equ	1058	;# 
  1609   000423                     SLRCONE         equ	1059	;# 
  1610   000424                     INLVLE          equ	1060	;# 
  1611   000425                     IOCEP           equ	1061	;# 
  1612   000426                     IOCEN           equ	1062	;# 
  1613   000427                     IOCEF           equ	1063	;# 
  1614   000428                     ANSELF          equ	1064	;# 
  1615   000429                     WPUF            equ	1065	;# 
  1616   00042A                     ODCONF          equ	1066	;# 
  1617   00042B                     SLRCONF         equ	1067	;# 
  1618   00042C                     INLVLF          equ	1068	;# 
  1619   000440                     NCO1ACC         equ	1088	;# 
  1620   000440                     NCO1ACCL        equ	1088	;# 
  1621   000441                     NCO1ACCH        equ	1089	;# 
  1622   000442                     NCO1ACCU        equ	1090	;# 
  1623   000443                     NCO1INC         equ	1091	;# 
  1624   000443                     NCO1INCL        equ	1091	;# 
  1625   000444                     NCO1INCH        equ	1092	;# 
  1626   000445                     NCO1INCU        equ	1093	;# 
  1627   000446                     NCO1CON         equ	1094	;# 
  1628   000447                     NCO1CLK         equ	1095	;# 
  1629   000448                     NCO2ACC         equ	1096	;# 
  1630   000448                     NCO2ACCL        equ	1096	;# 
  1631   000449                     NCO2ACCH        equ	1097	;# 
  1632   00044A                     NCO2ACCU        equ	1098	;# 
  1633   00044B                     NCO2INC         equ	1099	;# 
  1634   00044B                     NCO2INCL        equ	1099	;# 
  1635   00044C                     NCO2INCH        equ	1100	;# 
  1636   00044D                     NCO2INCU        equ	1101	;# 
  1637   00044E                     NCO2CON         equ	1102	;# 
  1638   00044F                     NCO2CLK         equ	1103	;# 
  1639   000450                     NCO3ACC         equ	1104	;# 
  1640   000450                     NCO3ACCL        equ	1104	;# 
  1641   000451                     NCO3ACCH        equ	1105	;# 
  1642   000452                     NCO3ACCU        equ	1106	;# 
  1643   000453                     NCO3INC         equ	1107	;# 
  1644   000453                     NCO3INCL        equ	1107	;# 
  1645   000454                     NCO3INCH        equ	1108	;# 
  1646   000455                     NCO3INCU        equ	1109	;# 
  1647   000456                     NCO3CON         equ	1110	;# 
  1648   000457                     NCO3CLK         equ	1111	;# 
  1649   000459                     IVTLOCK         equ	1113	;# 
  1650   00045A                     IVTAD           equ	1114	;# 
  1651   00045A                     IVTADL          equ	1114	;# 
  1652   00045B                     IVTADH          equ	1115	;# 
  1653   00045C                     IVTADU          equ	1116	;# 
  1654   00045D                     IVTBASE         equ	1117	;# 
  1655   00045D                     IVTBASEL        equ	1117	;# 
  1656   00045E                     IVTBASEH        equ	1118	;# 
  1657   00045F                     IVTBASEU        equ	1119	;# 
  1658   000460                     PWM1ERS         equ	1120	;# 
  1659   000461                     PWM1CLK         equ	1121	;# 
  1660   000462                     PWM1LDS         equ	1122	;# 
  1661   000463                     PWM1PR          equ	1123	;# 
  1662   000463                     PWM1PRL         equ	1123	;# 
  1663   000464                     PWM1PRH         equ	1124	;# 
  1664   000465                     PWM1CPRE        equ	1125	;# 
  1665   000466                     PWM1PIPOS       equ	1126	;# 
  1666   000467                     PWM1GIR         equ	1127	;# 
  1667   000468                     PWM1GIE         equ	1128	;# 
  1668   000469                     PWM1CON         equ	1129	;# 
  1669   00046A                     PWM1S1CFG       equ	1130	;# 
  1670   00046B                     PWM1S1P1        equ	1131	;# 
  1671   00046B                     PWM1S1P1L       equ	1131	;# 
  1672   00046C                     PWM1S1P1H       equ	1132	;# 
  1673   00046D                     PWM1S1P2        equ	1133	;# 
  1674   00046D                     PWM1S1P2L       equ	1133	;# 
  1675   00046E                     PWM1S1P2H       equ	1134	;# 
  1676   00046F                     PWM2ERS         equ	1135	;# 
  1677   000470                     PWM2CLK         equ	1136	;# 
  1678   000471                     PWM2LDS         equ	1137	;# 
  1679   000472                     PWM2PR          equ	1138	;# 
  1680   000472                     PWM2PRL         equ	1138	;# 
  1681   000473                     PWM2PRH         equ	1139	;# 
  1682   000474                     PWM2CPRE        equ	1140	;# 
  1683   000475                     PWM2PIPOS       equ	1141	;# 
  1684   000476                     PWM2GIR         equ	1142	;# 
  1685   000477                     PWM2GIE         equ	1143	;# 
  1686   000478                     PWM2CON         equ	1144	;# 
  1687   000479                     PWM2S1CFG       equ	1145	;# 
  1688   00047A                     PWM2S1P1        equ	1146	;# 
  1689   00047A                     PWM2S1P1L       equ	1146	;# 
  1690   00047B                     PWM2S1P1H       equ	1147	;# 
  1691   00047C                     PWM2S1P2        equ	1148	;# 
  1692   00047C                     PWM2S1P2L       equ	1148	;# 
  1693   00047D                     PWM2S1P2H       equ	1149	;# 
  1694   00047E                     PWM3ERS         equ	1150	;# 
  1695   00047F                     PWM3CLK         equ	1151	;# 
  1696   000480                     PWM3LDS         equ	1152	;# 
  1697   000481                     PWM3PR          equ	1153	;# 
  1698   000481                     PWM3PRL         equ	1153	;# 
  1699   000482                     PWM3PRH         equ	1154	;# 
  1700   000483                     PWM3CPRE        equ	1155	;# 
  1701   000484                     PWM3PIPOS       equ	1156	;# 
  1702   000485                     PWM3GIR         equ	1157	;# 
  1703   000486                     PWM3GIE         equ	1158	;# 
  1704   000487                     PWM3CON         equ	1159	;# 
  1705   000488                     PWM3S1CFG       equ	1160	;# 
  1706   000489                     PWM3S1P1        equ	1161	;# 
  1707   000489                     PWM3S1P1L       equ	1161	;# 
  1708   00048A                     PWM3S1P1H       equ	1162	;# 
  1709   00048B                     PWM3S1P2        equ	1163	;# 
  1710   00048B                     PWM3S1P2L       equ	1163	;# 
  1711   00048C                     PWM3S1P2H       equ	1164	;# 
  1712   00049C                     PWMLOAD         equ	1180	;# 
  1713   00049D                     PWMEN           equ	1181	;# 
  1714   00049E                     PIE0            equ	1182	;# 
  1715   00049F                     PIE1            equ	1183	;# 
  1716   0004A0                     PIE2            equ	1184	;# 
  1717   0004A1                     PIE3            equ	1185	;# 
  1718   0004A2                     PIE4            equ	1186	;# 
  1719   0004A3                     PIE5            equ	1187	;# 
  1720   0004A4                     PIE6            equ	1188	;# 
  1721   0004A5                     PIE7            equ	1189	;# 
  1722   0004A6                     PIE8            equ	1190	;# 
  1723   0004A7                     PIE9            equ	1191	;# 
  1724   0004A8                     PIE10           equ	1192	;# 
  1725   0004A9                     PIE11           equ	1193	;# 
  1726   0004AA                     PIE12           equ	1194	;# 
  1727   0004AB                     PIE13           equ	1195	;# 
  1728   0004AC                     PIE14           equ	1196	;# 
  1729   0004AD                     PIE15           equ	1197	;# 
  1730   0004AE                     PIR0            equ	1198	;# 
  1731   0004AF                     PIR1            equ	1199	;# 
  1732   0004B0                     PIR2            equ	1200	;# 
  1733   0004B1                     PIR3            equ	1201	;# 
  1734   0004B2                     PIR4            equ	1202	;# 
  1735   0004B3                     PIR5            equ	1203	;# 
  1736   0004B4                     PIR6            equ	1204	;# 
  1737   0004B5                     PIR7            equ	1205	;# 
  1738   0004B6                     PIR8            equ	1206	;# 
  1739   0004B7                     PIR9            equ	1207	;# 
  1740   0004B8                     PIR10           equ	1208	;# 
  1741   0004B9                     PIR11           equ	1209	;# 
  1742   0004BA                     PIR12           equ	1210	;# 
  1743   0004BB                     PIR13           equ	1211	;# 
  1744   0004BC                     PIR14           equ	1212	;# 
  1745   0004BD                     PIR15           equ	1213	;# 
  1746   0004BE                     LATA            equ	1214	;# 
  1747   0004BF                     LATB            equ	1215	;# 
  1748   0004C0                     LATC            equ	1216	;# 
  1749   0004C1                     LATD            equ	1217	;# 
  1750   0004C2                     LATE            equ	1218	;# 
  1751   0004C3                     LATF            equ	1219	;# 
  1752   0004C6                     TRISA           equ	1222	;# 
  1753   0004C7                     TRISB           equ	1223	;# 
  1754   0004C8                     TRISC           equ	1224	;# 
  1755   0004C9                     TRISD           equ	1225	;# 
  1756   0004CA                     TRISE           equ	1226	;# 
  1757   0004CB                     TRISF           equ	1227	;# 
  1758   0004CE                     PORTA           equ	1230	;# 
  1759   0004CF                     PORTB           equ	1231	;# 
  1760   0004D0                     PORTC           equ	1232	;# 
  1761   0004D1                     PORTD           equ	1233	;# 
  1762   0004D2                     PORTE           equ	1234	;# 
  1763   0004D3                     PORTF           equ	1235	;# 
  1764   0004D6                     INTCON0         equ	1238	;# 
  1765   0004D7                     INTCON1         equ	1239	;# 
  1766   0004D8                     STATUS          equ	1240	;# 
  1767   0004D9                     FSR2            equ	1241	;# 
  1768   0004D9                     FSR2L           equ	1241	;# 
  1769   0004DA                     FSR2H           equ	1242	;# 
  1770   0004DB                     PLUSW2          equ	1243	;# 
  1771   0004DC                     PREINC2         equ	1244	;# 
  1772   0004DD                     POSTDEC2        equ	1245	;# 
  1773   0004DE                     POSTINC2        equ	1246	;# 
  1774   0004DF                     INDF2           equ	1247	;# 
  1775   0004E0                     BSR             equ	1248	;# 
  1776   0004E1                     FSR1            equ	1249	;# 
  1777   0004E1                     FSR1L           equ	1249	;# 
  1778   0004E2                     FSR1H           equ	1250	;# 
  1779   0004E3                     PLUSW1          equ	1251	;# 
  1780   0004E4                     PREINC1         equ	1252	;# 
  1781   0004E5                     POSTDEC1        equ	1253	;# 
  1782   0004E6                     POSTINC1        equ	1254	;# 
  1783   0004E7                     INDF1           equ	1255	;# 
  1784   0004E8                     WREG            equ	1256	;# 
  1785   0004E9                     FSR0            equ	1257	;# 
  1786   0004E9                     FSR0L           equ	1257	;# 
  1787   0004EA                     FSR0H           equ	1258	;# 
  1788   0004EB                     PLUSW0          equ	1259	;# 
  1789   0004EC                     PREINC0         equ	1260	;# 
  1790   0004ED                     POSTDEC0        equ	1261	;# 
  1791   0004EE                     POSTINC0        equ	1262	;# 
  1792   0004EF                     INDF0           equ	1263	;# 
  1793   0004F0                     PCON0           equ	1264	;# 
  1794   0004F1                     PCON1           equ	1265	;# 
  1795   0004F2                     CPUDOZE         equ	1266	;# 
  1796   0004F3                     PROD            equ	1267	;# 
  1797   0004F3                     PRODL           equ	1267	;# 
  1798   0004F4                     PRODH           equ	1268	;# 
  1799   0004F5                     TABLAT          equ	1269	;# 
  1800   0004F6                     TBLPTR          equ	1270	;# 
  1801   0004F6                     TBLPTRL         equ	1270	;# 
  1802   0004F7                     TBLPTRH         equ	1271	;# 
  1803   0004F8                     TBLPTRU         equ	1272	;# 
  1804   0004F9                     PCLAT           equ	1273	;# 
  1805   0004F9                     PCL             equ	1273	;# 
  1806   0004FA                     PCLATH          equ	1274	;# 
  1807   0004FB                     PCLATU          equ	1275	;# 
  1808   0004FC                     STKPTR          equ	1276	;# 
  1809   0004FD                     TOS             equ	1277	;# 
  1810   0004FD                     TOSL            equ	1277	;# 
  1811   0004FE                     TOSH            equ	1278	;# 
  1812   0004FF                     TOSU            equ	1279	;# 
  1813                           
  1814                           	psect	smallconst
  1815   002600                     __psmallconst:
  1816                           	callstack 0
  1817   002600  00                 	db	0
  1818   002601                     _full_step_sequence:
  1819                           	callstack 0
  1820   002601  0C                 	db	12
  1821   002602  06                 	db	6
  1822   002603  03                 	db	3
  1823   002604  09                 	db	9
  1824   002605                     __end_of_full_step_sequence:
  1825                           	callstack 0
  1826   0000B3                     _OSCEN          set	179
  1827   0000B1                     _OSCFRQ         set	177
  1828   0000AD                     _OSCCON1        set	173
  1829   000418                     _ANSELD         set	1048
  1830   0004C9                     _TRISD          set	1225
  1831   0004C1                     _LATD           set	1217
  1832   002605  00                 	db	0	; dummy byte at the end
  1833   002600                     __smallconst    set	__psmallconst
  1834   002600                     __mediumconst   set	__psmallconst
  1835   000001                     __activetblptr  equ	1
  1836                           
  1837                           ; #config settings
  1838                           
  1839                           	psect	cinit
  1840   002ADC                     __pcinit:
  1841                           	callstack 0
  1842   002ADC                     start_initialization:
  1843                           	callstack 0
  1844   002ADC                     __initialization:
  1845                           	callstack 0
  1846                           
  1847                           ; Clear objects allocated to COMRAM (16 bytes)
  1848   002ADC  EE01  F11C         	lfsr	0,__pbssCOMRAM
  1849   002AE0  0E10               	movlw	16
  1850   002AE2                     clear_0:
  1851   002AE2  6AEE               	clrf	postinc0,c
  1852   002AE4  06E8               	decf	wreg,f,c
  1853   002AE6  E1FD               	bnz	clear_0
  1854   002AE8                     end_of_initialization:
  1855                           	callstack 0
  1856   002AE8                     __end_of__initialization:
  1857                           	callstack 0
  1858   002AE8  0E00               	movlw	low (__Lsmallconst shr (0+16))
  1859   002AEA  6EF8               	movwf	tblptru,c
  1860   002AEC  0E26               	movlw	high __Lsmallconst
  1861   002AEE  6EF7               	movwf	tblptrh,c
  1862   002AF0  0100               	movlb	0
  1863   002AF2  EF9B  F013         	goto	_main	;jump to C main() function
  1864                           
  1865                           	psect	bssCOMRAM
  1866   00051C                     __pbssCOMRAM:
  1867                           	callstack 0
  1868   00051C                     _motor2:
  1869                           	callstack 0
  1870   00051C                     	ds	8
  1871   000524                     _motor1:
  1872                           	callstack 0
  1873   000524                     	ds	8
  1874                           
  1875                           	psect	cstackCOMRAM
  1876   000501                     __pcstackCOMRAM:
  1877                           	callstack 0
  1878   000501                     Stepper_Write@motor:
  1879                           	callstack 0
  1880   000501                     Stepper_Init@motor:
  1881                           	callstack 0
  1882   000501                     
  1883                           ; 1 bytes @ 0x0
  1884   000501                     	ds	2
  1885   000503                     Stepper_Write@value:
  1886                           	callstack 0
  1887   000503                     Stepper_Init@lat:
  1888                           	callstack 0
  1889                           
  1890                           ; 2 bytes @ 0x2
  1891   000503                     	ds	1
  1892   000504                     ??_Stepper_Write:
  1893                           
  1894                           ; 1 bytes @ 0x3
  1895   000504                     	ds	1
  1896   000505                     Stepper_Init@tris:
  1897                           	callstack 0
  1898                           
  1899                           ; 2 bytes @ 0x4
  1900   000505                     	ds	2
  1901   000507                     Stepper_Init@ansel:
  1902                           	callstack 0
  1903                           
  1904                           ; 2 bytes @ 0x6
  1905   000507                     	ds	1
  1906   000508                     Stepper_Write@output_value:
  1907                           	callstack 0
  1908                           
  1909                           ; 1 bytes @ 0x7
  1910   000508                     	ds	1
  1911   000509                     Stepper_Init@nibble:
  1912                           	callstack 0
  1913   000509                     Stepper_Step_CW@motor:
  1914                           	callstack 0
  1915   000509                     Stepper_Step_CCW@motor:
  1916                           	callstack 0
  1917   000509                     Stepper_Off@motor:
  1918                           	callstack 0
  1919                           
  1920                           ; 2 bytes @ 0x8
  1921   000509                     	ds	1
  1922   00050A                     ??_Stepper_Init:
  1923                           
  1924                           ; 1 bytes @ 0x9
  1925   00050A                     	ds	1
  1926   00050B                     ??_Stepper_Step_CW:
  1927   00050B                     ??_Stepper_Step_CCW:
  1928                           
  1929                           ; 1 bytes @ 0xA
  1930   00050B                     	ds	2
  1931   00050D                     Stepper_Move_CW@motor:
  1932                           	callstack 0
  1933   00050D                     Stepper_Move_CCW@motor:
  1934                           	callstack 0
  1935                           
  1936                           ; 2 bytes @ 0xC
  1937   00050D                     	ds	2
  1938   00050F                     Stepper_Move_CW@steps:
  1939                           	callstack 0
  1940   00050F                     Stepper_Move_CCW@steps:
  1941                           	callstack 0
  1942                           
  1943                           ; 2 bytes @ 0xE
  1944   00050F                     	ds	2
  1945   000511                     Stepper_Move_CW@delay_ms:
  1946                           	callstack 0
  1947   000511                     Stepper_Move_CCW@delay_ms:
  1948                           	callstack 0
  1949                           
  1950                           ; 2 bytes @ 0x10
  1951   000511                     	ds	2
  1952   000513                     ??_Stepper_Move_CW:
  1953   000513                     ??_Stepper_Move_CCW:
  1954                           
  1955                           ; 1 bytes @ 0x12
  1956   000513                     	ds	1
  1957   000514                     Stepper_Move_CW@i:
  1958                           	callstack 0
  1959   000514                     Stepper_Move_CCW@i:
  1960                           	callstack 0
  1961                           
  1962                           ; 2 bytes @ 0x13
  1963   000514                     	ds	2
  1964   000516                     Stepper_Move_CW@j:
  1965                           	callstack 0
  1966   000516                     Stepper_Move_CCW@j:
  1967                           	callstack 0
  1968                           
  1969                           ; 2 bytes @ 0x15
  1970   000516                     	ds	2
  1971   000518                     Stepper_fullTurn_CW@motor:
  1972                           	callstack 0
  1973   000518                     Stepper_fullTurn_CCW@motor:
  1974                           	callstack 0
  1975                           
  1976                           ; 2 bytes @ 0x17
  1977   000518                     	ds	2
  1978   00051A                     ??_main:
  1979                           
  1980                           ; 1 bytes @ 0x19
  1981   00051A                     	ds	2
  1982                           
  1983 ;;
  1984 ;;Main: autosize = 0, tempsize = 2, incstack = 0, save=0
  1985 ;;
  1986 ;; *************** function _main *****************
  1987 ;; Defined at:
  1988 ;;		line 16 in file "maincode.c"
  1989 ;; Parameters:    Size  Location     Type
  1990 ;;		None
  1991 ;; Auto vars:     Size  Location     Type
  1992 ;;		None
  1993 ;; Return value:  Size  Location     Type
  1994 ;;                  1    wreg      void 
  1995 ;; Registers used:
  1996 ;;		wreg, fsr2l, fsr2h, status,2, status,0, tblptrl, tblptrh, tblptru, cstack
  1997 ;; Tracked objects:
  1998 ;;		On entry : 0/0
  1999 ;;		On exit  : 0/0
  2000 ;;		Unchanged: 0/0
  2001 ;; Data sizes:     COMRAM   BANK5   BANK6   BANK7   BANK8   BANK9  BANK10  BANK11  BANK12  BANK13  BANK14  BANK15  BANK1
      +6  BANK17  BANK18  BANK19  BANK20  BANK21  BANK22  BANK23  BANK24  BANK25  BANK26  BANK27  BANK28  BANK29  BANK30  BANK3
      +1  BANK32  BANK33  BANK34  BANK35  BANK36
  2002 ;;      Params:         0       0       0       0       0       0       0       0       0       0       0       0       
      +0       0       0       0       0       0       0       0       0       0       0       0       0       0       0       
      +0       0       0       0       0       0
  2003 ;;      Locals:         0       0       0       0       0       0       0       0       0       0       0       0       
      +0       0       0       0       0       0       0       0       0       0       0       0       0       0       0       
      +0       0       0       0       0       0
  2004 ;;      Temps:          2       0       0       0       0       0       0       0       0       0       0       0       
      +0       0       0       0       0       0       0       0       0       0       0       0       0       0       0       
      +0       0       0       0       0       0
  2005 ;;      Totals:         2       0       0       0       0       0       0       0       0       0       0       0       
      +0       0       0       0       0       0       0       0       0       0       0       0       0       0       0       
      +0       0       0       0       0       0
  2006 ;;Total ram usage:        2 bytes
  2007 ;; Hardware stack levels required when called: 4
  2008 ;; This function calls:
  2009 ;;		_Stepper_Init
  2010 ;;		_Stepper_Off
  2011 ;;		_Stepper_fullTurn_CCW
  2012 ;;		_Stepper_fullTurn_CW
  2013 ;;		_config
  2014 ;; This function is called by:
  2015 ;;		Startup code after reset
  2016 ;; This function uses a non-reentrant model
  2017 ;;
  2018                           
  2019                           	psect	text0
  2020   002736                     __ptext0:
  2021                           	callstack 0
  2022   002736                     _main:
  2023                           	callstack 123
  2024   002736                     
  2025                           ;maincode.c: 17:     config();
  2026   002736  EC84  F015         	call	_config	;wreg free
  2027   00273A                     
  2028                           ;maincode.c: 24:     Stepper_Init(&motor1, &LATD, &TRISD, &ANSELD, 0);
  2029   00273A  0E24               	movlw	low _motor1
  2030   00273C  6E01               	movwf	Stepper_Init@motor^(0+1280),c
  2031   00273E  0E05               	movlw	high _motor1
  2032   002740  6E02               	movwf	(Stepper_Init@motor+1)^(0+1280),c
  2033   002742  0EC1               	movlw	193
  2034   002744  6E03               	movwf	Stepper_Init@lat^(0+1280),c
  2035   002746  0E04               	movlw	4
  2036   002748  6E04               	movwf	(Stepper_Init@lat+1)^(0+1280),c
  2037   00274A  0EC9               	movlw	201
  2038   00274C  6E05               	movwf	Stepper_Init@tris^(0+1280),c
  2039   00274E  0E04               	movlw	4
  2040   002750  6E06               	movwf	(Stepper_Init@tris+1)^(0+1280),c
  2041   002752  0E18               	movlw	24
  2042   002754  6E07               	movwf	Stepper_Init@ansel^(0+1280),c
  2043   002756  0E04               	movlw	4
  2044   002758  6E08               	movwf	(Stepper_Init@ansel+1)^(0+1280),c
  2045   00275A  0E00               	movlw	0
  2046   00275C  6E09               	movwf	Stepper_Init@nibble^(0+1280),c
  2047   00275E  EC03  F013         	call	_Stepper_Init	;wreg free
  2048   002762                     
  2049                           ;maincode.c: 32:     Stepper_Init(&motor2, &LATD, &TRISD, &ANSELD, 1);
  2050   002762  0E1C               	movlw	low _motor2
  2051   002764  6E01               	movwf	Stepper_Init@motor^(0+1280),c
  2052   002766  0E05               	movlw	high _motor2
  2053   002768  6E02               	movwf	(Stepper_Init@motor+1)^(0+1280),c
  2054   00276A  0EC1               	movlw	193
  2055   00276C  6E03               	movwf	Stepper_Init@lat^(0+1280),c
  2056   00276E  0E04               	movlw	4
  2057   002770  6E04               	movwf	(Stepper_Init@lat+1)^(0+1280),c
  2058   002772  0EC9               	movlw	201
  2059   002774  6E05               	movwf	Stepper_Init@tris^(0+1280),c
  2060   002776  0E04               	movlw	4
  2061   002778  6E06               	movwf	(Stepper_Init@tris+1)^(0+1280),c
  2062   00277A  0E18               	movlw	24
  2063   00277C  6E07               	movwf	Stepper_Init@ansel^(0+1280),c
  2064   00277E  0E04               	movlw	4
  2065   002780  6E08               	movwf	(Stepper_Init@ansel+1)^(0+1280),c
  2066   002782  0E01               	movlw	1
  2067   002784  6E09               	movwf	Stepper_Init@nibble^(0+1280),c
  2068   002786  EC03  F013         	call	_Stepper_Init	;wreg free
  2069   00278A                     l1087:
  2070                           
  2071                           ;maincode.c: 35:     {;maincode.c: 39:         Stepper_fullTurn_CW(&motor1);
  2072   00278A  0E24               	movlw	low _motor1
  2073   00278C  6E18               	movwf	Stepper_fullTurn_CW@motor^(0+1280),c
  2074   00278E  0E05               	movlw	high _motor1
  2075   002790  6E19               	movwf	(Stepper_fullTurn_CW@motor+1)^(0+1280),c
  2076   002792  EC46  F015         	call	_Stepper_fullTurn_CW	;wreg free
  2077   002796                     
  2078                           ;maincode.c: 41:         _delay((unsigned long)((1000)*(48000000UL/4000.0)));
  2079   002796  0E3D               	movlw	61
  2080   002798  6E1B               	movwf	(??_main+1)^(0+1280),c
  2081   00279A  0EE1               	movlw	225
  2082   00279C  6E1A               	movwf	??_main^(0+1280),c
  2083   00279E  0E40               	movlw	64
  2084   0027A0                     u177:
  2085   0027A0  2EE8               	decfsz	wreg,f,c
  2086   0027A2  D7FE               	bra	u177
  2087   0027A4  2E1A               	decfsz	??_main^(0+1280),f,c
  2088   0027A6  D7FC               	bra	u177
  2089   0027A8  2E1B               	decfsz	(??_main+1)^(0+1280),f,c
  2090   0027AA  D7FA               	bra	u177
  2091   0027AC                     
  2092                           ;maincode.c: 46:         Stepper_fullTurn_CW(&motor2);
  2093   0027AC  0E1C               	movlw	low _motor2
  2094   0027AE  6E18               	movwf	Stepper_fullTurn_CW@motor^(0+1280),c
  2095   0027B0  0E05               	movlw	high _motor2
  2096   0027B2  6E19               	movwf	(Stepper_fullTurn_CW@motor+1)^(0+1280),c
  2097   0027B4  EC46  F015         	call	_Stepper_fullTurn_CW	;wreg free
  2098   0027B8                     
  2099                           ;maincode.c: 48:         _delay((unsigned long)((1000)*(48000000UL/4000.0)));
  2100   0027B8  0E3D               	movlw	61
  2101   0027BA  6E1B               	movwf	(??_main+1)^(0+1280),c
  2102   0027BC  0EE1               	movlw	225
  2103   0027BE  6E1A               	movwf	??_main^(0+1280),c
  2104   0027C0  0E40               	movlw	64
  2105   0027C2                     u187:
  2106   0027C2  2EE8               	decfsz	wreg,f,c
  2107   0027C4  D7FE               	bra	u187
  2108   0027C6  2E1A               	decfsz	??_main^(0+1280),f,c
  2109   0027C8  D7FC               	bra	u187
  2110   0027CA  2E1B               	decfsz	(??_main+1)^(0+1280),f,c
  2111   0027CC  D7FA               	bra	u187
  2112   0027CE                     
  2113                           ;maincode.c: 53:         Stepper_fullTurn_CCW(&motor1);
  2114   0027CE  0E24               	movlw	low _motor1
  2115   0027D0  6E18               	movwf	Stepper_fullTurn_CCW@motor^(0+1280),c
  2116   0027D2  0E05               	movlw	high _motor1
  2117   0027D4  6E19               	movwf	(Stepper_fullTurn_CCW@motor+1)^(0+1280),c
  2118   0027D6  EC5A  F015         	call	_Stepper_fullTurn_CCW	;wreg free
  2119   0027DA                     
  2120                           ;maincode.c: 55:         _delay((unsigned long)((1000)*(48000000UL/4000.0)));
  2121   0027DA  0E3D               	movlw	61
  2122   0027DC  6E1B               	movwf	(??_main+1)^(0+1280),c
  2123   0027DE  0EE1               	movlw	225
  2124   0027E0  6E1A               	movwf	??_main^(0+1280),c
  2125   0027E2  0E40               	movlw	64
  2126   0027E4                     u197:
  2127   0027E4  2EE8               	decfsz	wreg,f,c
  2128   0027E6  D7FE               	bra	u197
  2129   0027E8  2E1A               	decfsz	??_main^(0+1280),f,c
  2130   0027EA  D7FC               	bra	u197
  2131   0027EC  2E1B               	decfsz	(??_main+1)^(0+1280),f,c
  2132   0027EE  D7FA               	bra	u197
  2133   0027F0                     
  2134                           ;maincode.c: 60:         Stepper_fullTurn_CCW(&motor2);
  2135   0027F0  0E1C               	movlw	low _motor2
  2136   0027F2  6E18               	movwf	Stepper_fullTurn_CCW@motor^(0+1280),c
  2137   0027F4  0E05               	movlw	high _motor2
  2138   0027F6  6E19               	movwf	(Stepper_fullTurn_CCW@motor+1)^(0+1280),c
  2139   0027F8  EC5A  F015         	call	_Stepper_fullTurn_CCW	;wreg free
  2140   0027FC                     
  2141                           ;maincode.c: 62:         _delay((unsigned long)((1000)*(48000000UL/4000.0)));
  2142   0027FC  0E3D               	movlw	61
  2143   0027FE  6E1B               	movwf	(??_main+1)^(0+1280),c
  2144   002800  0EE1               	movlw	225
  2145   002802  6E1A               	movwf	??_main^(0+1280),c
  2146   002804  0E40               	movlw	64
  2147   002806                     u207:
  2148   002806  2EE8               	decfsz	wreg,f,c
  2149   002808  D7FE               	bra	u207
  2150   00280A  2E1A               	decfsz	??_main^(0+1280),f,c
  2151   00280C  D7FC               	bra	u207
  2152   00280E  2E1B               	decfsz	(??_main+1)^(0+1280),f,c
  2153   002810  D7FA               	bra	u207
  2154   002812                     
  2155                           ;maincode.c: 67:         Stepper_Off(&motor1);
  2156   002812  0E24               	movlw	low _motor1
  2157   002814  6E09               	movwf	Stepper_Off@motor^(0+1280),c
  2158   002816  0E05               	movlw	high _motor1
  2159   002818  6E0A               	movwf	(Stepper_Off@motor+1)^(0+1280),c
  2160   00281A  EC7B  F015         	call	_Stepper_Off	;wreg free
  2161   00281E                     
  2162                           ;maincode.c: 68:         Stepper_Off(&motor2);
  2163   00281E  0E1C               	movlw	low _motor2
  2164   002820  6E09               	movwf	Stepper_Off@motor^(0+1280),c
  2165   002822  0E05               	movlw	high _motor2
  2166   002824  6E0A               	movwf	(Stepper_Off@motor+1)^(0+1280),c
  2167   002826  EC7B  F015         	call	_Stepper_Off	;wreg free
  2168   00282A                     
  2169                           ;maincode.c: 70:         _delay((unsigned long)((1000)*(48000000UL/4000.0)));
  2170   00282A  0E3D               	movlw	61
  2171   00282C  6E1B               	movwf	(??_main+1)^(0+1280),c
  2172   00282E  0EE1               	movlw	225
  2173   002830  6E1A               	movwf	??_main^(0+1280),c
  2174   002832  0E40               	movlw	64
  2175   002834                     u217:
  2176   002834  2EE8               	decfsz	wreg,f,c
  2177   002836  D7FE               	bra	u217
  2178   002838  2E1A               	decfsz	??_main^(0+1280),f,c
  2179   00283A  D7FC               	bra	u217
  2180   00283C  2E1B               	decfsz	(??_main+1)^(0+1280),f,c
  2181   00283E  D7FA               	bra	u217
  2182   002840  EFC5  F013         	goto	l1087
  2183   002844  EFFE  F0FF         	goto	start
  2184   002848                     __end_of_main:
  2185                           	callstack 0
  2186                           
  2187 ;; *************** function _config *****************
  2188 ;; Defined at:
  2189 ;;		line 8 in file "maincode.c"
  2190 ;; Parameters:    Size  Location     Type
  2191 ;;		None
  2192 ;; Auto vars:     Size  Location     Type
  2193 ;;		None
  2194 ;; Return value:  Size  Location     Type
  2195 ;;                  1    wreg      void 
  2196 ;; Registers used:
  2197 ;;		wreg, status,2
  2198 ;; Tracked objects:
  2199 ;;		On entry : 0/0
  2200 ;;		On exit  : 0/0
  2201 ;;		Unchanged: 0/0
  2202 ;; Data sizes:     COMRAM   BANK5   BANK6   BANK7   BANK8   BANK9  BANK10  BANK11  BANK12  BANK13  BANK14  BANK15  BANK1
      +6  BANK17  BANK18  BANK19  BANK20  BANK21  BANK22  BANK23  BANK24  BANK25  BANK26  BANK27  BANK28  BANK29  BANK30  BANK3
      +1  BANK32  BANK33  BANK34  BANK35  BANK36
  2203 ;;      Params:         0       0       0       0       0       0       0       0       0       0       0       0       
      +0       0       0       0       0       0       0       0       0       0       0       0       0       0       0       
      +0       0       0       0       0       0
  2204 ;;      Locals:         0       0       0       0       0       0       0       0       0       0       0       0       
      +0       0       0       0       0       0       0       0       0       0       0       0       0       0       0       
      +0       0       0       0       0       0
  2205 ;;      Temps:          0       0       0       0       0       0       0       0       0       0       0       0       
      +0       0       0       0       0       0       0       0       0       0       0       0       0       0       0       
      +0       0       0       0       0       0
  2206 ;;      Totals:         0       0       0       0       0       0       0       0       0       0       0       0       
      +0       0       0       0       0       0       0       0       0       0       0       0       0       0       0       
      +0       0       0       0       0       0
  2207 ;;Total ram usage:        0 bytes
  2208 ;; Hardware stack levels used: 1
  2209 ;; This function calls:
  2210 ;;		Nothing
  2211 ;; This function is called by:
  2212 ;;		_main
  2213 ;; This function uses a non-reentrant model
  2214 ;;
  2215                           
  2216                           	psect	text1
  2217   002B08                     __ptext1:
  2218                           	callstack 0
  2219   002B08                     _config:
  2220                           	callstack 126
  2221   002B08                     
  2222                           ;maincode.c: 10:     OSCCON1 = 0x60;
  2223   002B08  0E60               	movlw	96
  2224   002B0A  0100               	movlb	0	; () banked
  2225   002B0C  6FAD               	movwf	173,b	;volatile
  2226                           
  2227                           ;maincode.c: 11:     OSCFRQ = 0x07;
  2228   002B0E  0E07               	movlw	7
  2229   002B10  6FB1               	movwf	177,b	;volatile
  2230                           
  2231                           ;maincode.c: 12:     OSCEN = 0x40;
  2232   002B12  0E40               	movlw	64
  2233   002B14  6FB3               	movwf	179,b	;volatile
  2234   002B16                     
  2235                           ; BSR set to: 0
  2236   002B16  0012               	return		;funcret
  2237   002B18                     __end_of_config:
  2238                           	callstack 0
  2239                           
  2240 ;; *************** function _Stepper_fullTurn_CW *****************
  2241 ;; Defined at:
  2242 ;;		line 292 in file "motor_paso.c"
  2243 ;; Parameters:    Size  Location     Type
  2244 ;;  motor           2   23[COMRAM] PTR struct .
  2245 ;;		 -> motor2(8), motor1(8), 
  2246 ;; Auto vars:     Size  Location     Type
  2247 ;;		None
  2248 ;; Return value:  Size  Location     Type
  2249 ;;                  1    wreg      void 
  2250 ;; Registers used:
  2251 ;;		wreg, fsr2l, fsr2h, status,2, status,0, tblptrl, tblptrh, tblptru, cstack
  2252 ;; Tracked objects:
  2253 ;;		On entry : 0/0
  2254 ;;		On exit  : 0/0
  2255 ;;		Unchanged: 0/0
  2256 ;; Data sizes:     COMRAM   BANK5   BANK6   BANK7   BANK8   BANK9  BANK10  BANK11  BANK12  BANK13  BANK14  BANK15  BANK1
      +6  BANK17  BANK18  BANK19  BANK20  BANK21  BANK22  BANK23  BANK24  BANK25  BANK26  BANK27  BANK28  BANK29  BANK30  BANK3
      +1  BANK32  BANK33  BANK34  BANK35  BANK36
  2257 ;;      Params:         2       0       0       0       0       0       0       0       0       0       0       0       
      +0       0       0       0       0       0       0       0       0       0       0       0       0       0       0       
      +0       0       0       0       0       0
  2258 ;;      Locals:         0       0       0       0       0       0       0       0       0       0       0       0       
      +0       0       0       0       0       0       0       0       0       0       0       0       0       0       0       
      +0       0       0       0       0       0
  2259 ;;      Temps:          0       0       0       0       0       0       0       0       0       0       0       0       
      +0       0       0       0       0       0       0       0       0       0       0       0       0       0       0       
      +0       0       0       0       0       0
  2260 ;;      Totals:         2       0       0       0       0       0       0       0       0       0       0       0       
      +0       0       0       0       0       0       0       0       0       0       0       0       0       0       0       
      +0       0       0       0       0       0
  2261 ;;Total ram usage:        2 bytes
  2262 ;; Hardware stack levels used: 1
  2263 ;; Hardware stack levels required when called: 3
  2264 ;; This function calls:
  2265 ;;		_Stepper_Move_CW
  2266 ;;		_Stepper_Off
  2267 ;; This function is called by:
  2268 ;;		_main
  2269 ;; This function uses a non-reentrant model
  2270 ;;
  2271                           
  2272                           	psect	text2
  2273   002A8C                     __ptext2:
  2274                           	callstack 0
  2275   002A8C                     _Stepper_fullTurn_CW:
  2276                           	callstack 123
  2277   002A8C                     
  2278                           ;motor_paso.c: 292: void Stepper_fullTurn_CW(Stepper *motor);motor_paso.c: 293: {;motor_
      +                          paso.c: 294:     Stepper_Move_CW(motor,
  2279   002A8C  C518  F50D         	movff	Stepper_fullTurn_CW@motor,Stepper_Move_CW@motor
  2280   002A90  C519  F50E         	movff	Stepper_fullTurn_CW@motor+1,Stepper_Move_CW@motor+1
  2281   002A94  0E08               	movlw	8
  2282   002A96  6E10               	movwf	(Stepper_Move_CW@steps+1)^(0+1280),c
  2283   002A98  0E00               	movlw	0
  2284   002A9A  6E0F               	movwf	Stepper_Move_CW@steps^(0+1280),c
  2285   002A9C  6A12               	clrf	(Stepper_Move_CW@delay_ms+1)^(0+1280),c
  2286   002A9E  0E05               	movlw	5
  2287   002AA0  6E11               	movwf	Stepper_Move_CW@delay_ms^(0+1280),c
  2288   002AA2  ECAD  F014         	call	_Stepper_Move_CW	;wreg free
  2289   002AA6                     
  2290                           ;motor_paso.c: 297:     Stepper_Off(motor);
  2291   002AA6  C518  F509         	movff	Stepper_fullTurn_CW@motor,Stepper_Off@motor
  2292   002AAA  C519  F50A         	movff	Stepper_fullTurn_CW@motor+1,Stepper_Off@motor+1
  2293   002AAE  EC7B  F015         	call	_Stepper_Off	;wreg free
  2294   002AB2  0012               	return		;funcret
  2295   002AB4                     __end_of_Stepper_fullTurn_CW:
  2296                           	callstack 0
  2297                           
  2298 ;; *************** function _Stepper_Move_CW *****************
  2299 ;; Defined at:
  2300 ;;		line 233 in file "motor_paso.c"
  2301 ;; Parameters:    Size  Location     Type
  2302 ;;  motor           2   12[COMRAM] PTR struct .
  2303 ;;		 -> motor2(8), motor1(8), 
  2304 ;;  steps           2   14[COMRAM] unsigned short 
  2305 ;;  delay_ms        2   16[COMRAM] unsigned short 
  2306 ;; Auto vars:     Size  Location     Type
  2307 ;;  j               2   21[COMRAM] unsigned short 
  2308 ;;  i               2   19[COMRAM] unsigned short 
  2309 ;; Return value:  Size  Location     Type
  2310 ;;                  1    wreg      void 
  2311 ;; Registers used:
  2312 ;;		wreg, fsr2l, fsr2h, status,2, status,0, tblptrl, tblptrh, tblptru, cstack
  2313 ;; Tracked objects:
  2314 ;;		On entry : 0/0
  2315 ;;		On exit  : 0/0
  2316 ;;		Unchanged: 0/0
  2317 ;; Data sizes:     COMRAM   BANK5   BANK6   BANK7   BANK8   BANK9  BANK10  BANK11  BANK12  BANK13  BANK14  BANK15  BANK1
      +6  BANK17  BANK18  BANK19  BANK20  BANK21  BANK22  BANK23  BANK24  BANK25  BANK26  BANK27  BANK28  BANK29  BANK30  BANK3
      +1  BANK32  BANK33  BANK34  BANK35  BANK36
  2318 ;;      Params:         6       0       0       0       0       0       0       0       0       0       0       0       
      +0       0       0       0       0       0       0       0       0       0       0       0       0       0       0       
      +0       0       0       0       0       0
  2319 ;;      Locals:         4       0       0       0       0       0       0       0       0       0       0       0       
      +0       0       0       0       0       0       0       0       0       0       0       0       0       0       0       
      +0       0       0       0       0       0
  2320 ;;      Temps:          1       0       0       0       0       0       0       0       0       0       0       0       
      +0       0       0       0       0       0       0       0       0       0       0       0       0       0       0       
      +0       0       0       0       0       0
  2321 ;;      Totals:        11       0       0       0       0       0       0       0       0       0       0       0       
      +0       0       0       0       0       0       0       0       0       0       0       0       0       0       0       
      +0       0       0       0       0       0
  2322 ;;Total ram usage:       11 bytes
  2323 ;; Hardware stack levels used: 1
  2324 ;; Hardware stack levels required when called: 2
  2325 ;; This function calls:
  2326 ;;		_Stepper_Step_CW
  2327 ;; This function is called by:
  2328 ;;		_Stepper_fullTurn_CW
  2329 ;; This function uses a non-reentrant model
  2330 ;;
  2331                           
  2332                           	psect	text3
  2333   00295A                     __ptext3:
  2334                           	callstack 0
  2335   00295A                     _Stepper_Move_CW:
  2336                           	callstack 123
  2337   00295A                     
  2338                           ;motor_paso.c: 233: void Stepper_Move_CW(Stepper *motor, uint16_t steps, uint16_t delay_
      +                          ms);motor_paso.c: 234: {;motor_paso.c: 235:     uint16_t i;;motor_paso.c: 236:     uint1
      +                          6_t j;;motor_paso.c: 238:     for(i = 0; i < steps; i++)
  2339   00295A  6A15               	clrf	(Stepper_Move_CW@i+1)^(0+1280),c
  2340   00295C  0E00               	movlw	0
  2341   00295E  6E14               	movwf	Stepper_Move_CW@i^(0+1280),c
  2342   002960  EFD4  F014         	goto	l1037
  2343   002964                     l1027:
  2344                           
  2345                           ;motor_paso.c: 239:     {;motor_paso.c: 243:         Stepper_Step_CW(motor);
  2346   002964  C50D  F509         	movff	Stepper_Move_CW@motor,Stepper_Step_CW@motor
  2347   002968  C50E  F50A         	movff	Stepper_Move_CW@motor+1,Stepper_Step_CW@motor+1
  2348   00296C  ECE0  F014         	call	_Stepper_Step_CW	;wreg free
  2349   002970                     
  2350                           ;motor_paso.c: 251:         for(j = 0; j < delay_ms; j++)
  2351   002970  6A17               	clrf	(Stepper_Move_CW@j+1)^(0+1280),c
  2352   002972  0E00               	movlw	0
  2353   002974  6E16               	movwf	Stepper_Move_CW@j^(0+1280),c
  2354   002976  EFC7  F014         	goto	l67
  2355   00297A                     l1031:
  2356                           
  2357                           ;motor_paso.c: 252:         {;motor_paso.c: 253:             _delay((unsigned long)((1)*
      +                          (48000000UL/4000.0)));
  2358   00297A  0E10               	movlw	16
  2359   00297C  6E13               	movwf	??_Stepper_Move_CW^(0+1280),c
  2360   00297E  0E94               	movlw	148
  2361   002980                     u227:
  2362   002980  2EE8               	decfsz	wreg,f,c
  2363   002982  D7FE               	bra	u227
  2364   002984  2E13               	decfsz	??_Stepper_Move_CW^(0+1280),f,c
  2365   002986  D7FC               	bra	u227
  2366   002988  D000               	nop2	
  2367   00298A                     
  2368                           ;motor_paso.c: 254:         }
  2369   00298A  4A16               	infsnz	Stepper_Move_CW@j^(0+1280),f,c
  2370   00298C  2A17               	incf	(Stepper_Move_CW@j+1)^(0+1280),f,c
  2371   00298E                     l67:
  2372   00298E  5011               	movf	Stepper_Move_CW@delay_ms^(0+1280),w,c
  2373   002990  5C16               	subwf	Stepper_Move_CW@j^(0+1280),w,c
  2374   002992  5012               	movf	(Stepper_Move_CW@delay_ms+1)^(0+1280),w,c
  2375   002994  5817               	subwfb	(Stepper_Move_CW@j+1)^(0+1280),w,c
  2376   002996  A0D8               	btfss	status,0,c
  2377   002998  EFD0  F014         	goto	u121
  2378   00299C  EFD2  F014         	goto	u120
  2379   0029A0                     u121:
  2380   0029A0  EFBD  F014         	goto	l1031
  2381   0029A4                     u120:
  2382   0029A4                     
  2383                           ;motor_paso.c: 255:     }
  2384   0029A4  4A14               	infsnz	Stepper_Move_CW@i^(0+1280),f,c
  2385   0029A6  2A15               	incf	(Stepper_Move_CW@i+1)^(0+1280),f,c
  2386   0029A8                     l1037:
  2387   0029A8  500F               	movf	Stepper_Move_CW@steps^(0+1280),w,c
  2388   0029AA  5C14               	subwf	Stepper_Move_CW@i^(0+1280),w,c
  2389   0029AC  5010               	movf	(Stepper_Move_CW@steps+1)^(0+1280),w,c
  2390   0029AE  5815               	subwfb	(Stepper_Move_CW@i+1)^(0+1280),w,c
  2391   0029B0  A0D8               	btfss	status,0,c
  2392   0029B2  EFDD  F014         	goto	u131
  2393   0029B6  EFDF  F014         	goto	u130
  2394   0029BA                     u131:
  2395   0029BA  EFB2  F014         	goto	l1027
  2396   0029BE                     u130:
  2397   0029BE  0012               	return		;funcret
  2398   0029C0                     __end_of_Stepper_Move_CW:
  2399                           	callstack 0
  2400                           
  2401 ;; *************** function _Stepper_Step_CW *****************
  2402 ;; Defined at:
  2403 ;;		line 178 in file "motor_paso.c"
  2404 ;; Parameters:    Size  Location     Type
  2405 ;;  motor           2    8[COMRAM] PTR struct .
  2406 ;;		 -> motor2(8), motor1(8), 
  2407 ;; Auto vars:     Size  Location     Type
  2408 ;;		None
  2409 ;; Return value:  Size  Location     Type
  2410 ;;                  1    wreg      void 
  2411 ;; Registers used:
  2412 ;;		wreg, fsr2l, fsr2h, status,2, status,0, tblptrl, tblptrh, tblptru, cstack
  2413 ;; Tracked objects:
  2414 ;;		On entry : 0/0
  2415 ;;		On exit  : 0/0
  2416 ;;		Unchanged: 0/0
  2417 ;; Data sizes:     COMRAM   BANK5   BANK6   BANK7   BANK8   BANK9  BANK10  BANK11  BANK12  BANK13  BANK14  BANK15  BANK1
      +6  BANK17  BANK18  BANK19  BANK20  BANK21  BANK22  BANK23  BANK24  BANK25  BANK26  BANK27  BANK28  BANK29  BANK30  BANK3
      +1  BANK32  BANK33  BANK34  BANK35  BANK36
  2418 ;;      Params:         2       0       0       0       0       0       0       0       0       0       0       0       
      +0       0       0       0       0       0       0       0       0       0       0       0       0       0       0       
      +0       0       0       0       0       0
  2419 ;;      Locals:         0       0       0       0       0       0       0       0       0       0       0       0       
      +0       0       0       0       0       0       0       0       0       0       0       0       0       0       0       
      +0       0       0       0       0       0
  2420 ;;      Temps:          2       0       0       0       0       0       0       0       0       0       0       0       
      +0       0       0       0       0       0       0       0       0       0       0       0       0       0       0       
      +0       0       0       0       0       0
  2421 ;;      Totals:         4       0       0       0       0       0       0       0       0       0       0       0       
      +0       0       0       0       0       0       0       0       0       0       0       0       0       0       0       
      +0       0       0       0       0       0
  2422 ;;Total ram usage:        4 bytes
  2423 ;; Hardware stack levels used: 1
  2424 ;; Hardware stack levels required when called: 1
  2425 ;; This function calls:
  2426 ;;		_Stepper_Write
  2427 ;; This function is called by:
  2428 ;;		_Stepper_Move_CW
  2429 ;; This function uses a non-reentrant model
  2430 ;;
  2431                           
  2432                           	psect	text4
  2433   0029C0                     __ptext4:
  2434                           	callstack 0
  2435   0029C0                     _Stepper_Step_CW:
  2436                           	callstack 123
  2437   0029C0                     
  2438                           ;motor_paso.c: 178: void Stepper_Step_CW(Stepper *motor);motor_paso.c: 179: {;motor_paso
      +                          .c: 183:     Stepper_Write(motor, full_step_sequence[motor->index]);
  2439   0029C0  C509  F501         	movff	Stepper_Step_CW@motor,Stepper_Write@motor
  2440   0029C4  C50A  F502         	movff	Stepper_Step_CW@motor+1,Stepper_Write@motor+1
  2441   0029C8  EE20 F007          	lfsr	2,7
  2442   0029CC  5009               	movf	Stepper_Step_CW@motor^(0+1280),w,c
  2443   0029CE  26D9               	addwf	fsr2l,f,c
  2444   0029D0  500A               	movf	(Stepper_Step_CW@motor+1)^(0+1280),w,c
  2445   0029D2  22DA               	addwfc	fsr2h,f,c
  2446   0029D4  50DF               	movf	indf2,w,c
  2447   0029D6  6E0B               	movwf	??_Stepper_Step_CW^(0+1280),c
  2448   0029D8  500B               	movf	??_Stepper_Step_CW^(0+1280),w,c
  2449   0029DA  0F01               	addlw	low _full_step_sequence
  2450   0029DC  6E0C               	movwf	(??_Stepper_Step_CW+1)^(0+1280),c
  2451   0029DE  C50C  F4F6         	movff	??_Stepper_Step_CW+1,tblptrl
  2452   0029E2                     	if	0	;There is only one active tblptr byte
  2453   0029E2                     	endif
  2454   0029E2                     	if	0	;tblptru may be non-zero
  2455   0029E2                     	endif
  2456   0029E2                     	if	0	;tblptru may be non-zero
  2457   0029E2                     	endif
  2458   0029E2  0008               	tblrd		*
  2459   0029E4  C4F5 F503          	movff	tablat,Stepper_Write@value
  2460   0029E8  EC24  F014         	call	_Stepper_Write	;wreg free
  2461   0029EC                     
  2462                           ;motor_paso.c: 188:     motor->index++;
  2463   0029EC  EE20 F007          	lfsr	2,7
  2464   0029F0  5009               	movf	Stepper_Step_CW@motor^(0+1280),w,c
  2465   0029F2  26D9               	addwf	fsr2l,f,c
  2466   0029F4  500A               	movf	(Stepper_Step_CW@motor+1)^(0+1280),w,c
  2467   0029F6  22DA               	addwfc	fsr2h,f,c
  2468   0029F8  2ADF               	incf	indf2,f,c
  2469   0029FA                     
  2470                           ;motor_paso.c: 193:     if(motor->index >= 4)
  2471   0029FA  EE20 F007          	lfsr	2,7
  2472   0029FE  5009               	movf	Stepper_Step_CW@motor^(0+1280),w,c
  2473   002A00  26D9               	addwf	fsr2l,f,c
  2474   002A02  500A               	movf	(Stepper_Step_CW@motor+1)^(0+1280),w,c
  2475   002A04  22DA               	addwfc	fsr2h,f,c
  2476   002A06  0E03               	movlw	3
  2477   002A08  64DF               	cpfsgt	indf2,c
  2478   002A0A  EF09  F015         	goto	u101
  2479   002A0E  EF0B  F015         	goto	u100
  2480   002A12                     u101:
  2481   002A12  EF12  F015         	goto	l57
  2482   002A16                     u100:
  2483   002A16                     
  2484                           ;motor_paso.c: 194:     {;motor_paso.c: 195:         motor->index = 0;
  2485   002A16  EE20 F007          	lfsr	2,7
  2486   002A1A  5009               	movf	Stepper_Step_CW@motor^(0+1280),w,c
  2487   002A1C  26D9               	addwf	fsr2l,f,c
  2488   002A1E  500A               	movf	(Stepper_Step_CW@motor+1)^(0+1280),w,c
  2489   002A20  22DA               	addwfc	fsr2h,f,c
  2490   002A22  6ADF               	clrf	indf2,c
  2491   002A24                     l57:
  2492   002A24  0012               	return		;funcret
  2493   002A26                     __end_of_Stepper_Step_CW:
  2494                           	callstack 0
  2495                           
  2496 ;; *************** function _Stepper_fullTurn_CCW *****************
  2497 ;; Defined at:
  2498 ;;		line 305 in file "motor_paso.c"
  2499 ;; Parameters:    Size  Location     Type
  2500 ;;  motor           2   23[COMRAM] PTR struct .
  2501 ;;		 -> motor2(8), motor1(8), 
  2502 ;; Auto vars:     Size  Location     Type
  2503 ;;		None
  2504 ;; Return value:  Size  Location     Type
  2505 ;;                  1    wreg      void 
  2506 ;; Registers used:
  2507 ;;		wreg, fsr2l, fsr2h, status,2, status,0, tblptrl, tblptrh, tblptru, cstack
  2508 ;; Tracked objects:
  2509 ;;		On entry : 0/0
  2510 ;;		On exit  : 0/0
  2511 ;;		Unchanged: 0/0
  2512 ;; Data sizes:     COMRAM   BANK5   BANK6   BANK7   BANK8   BANK9  BANK10  BANK11  BANK12  BANK13  BANK14  BANK15  BANK1
      +6  BANK17  BANK18  BANK19  BANK20  BANK21  BANK22  BANK23  BANK24  BANK25  BANK26  BANK27  BANK28  BANK29  BANK30  BANK3
      +1  BANK32  BANK33  BANK34  BANK35  BANK36
  2513 ;;      Params:         2       0       0       0       0       0       0       0       0       0       0       0       
      +0       0       0       0       0       0       0       0       0       0       0       0       0       0       0       
      +0       0       0       0       0       0
  2514 ;;      Locals:         0       0       0       0       0       0       0       0       0       0       0       0       
      +0       0       0       0       0       0       0       0       0       0       0       0       0       0       0       
      +0       0       0       0       0       0
  2515 ;;      Temps:          0       0       0       0       0       0       0       0       0       0       0       0       
      +0       0       0       0       0       0       0       0       0       0       0       0       0       0       0       
      +0       0       0       0       0       0
  2516 ;;      Totals:         2       0       0       0       0       0       0       0       0       0       0       0       
      +0       0       0       0       0       0       0       0       0       0       0       0       0       0       0       
      +0       0       0       0       0       0
  2517 ;;Total ram usage:        2 bytes
  2518 ;; Hardware stack levels used: 1
  2519 ;; Hardware stack levels required when called: 3
  2520 ;; This function calls:
  2521 ;;		_Stepper_Move_CCW
  2522 ;;		_Stepper_Off
  2523 ;; This function is called by:
  2524 ;;		_main
  2525 ;; This function uses a non-reentrant model
  2526 ;;
  2527                           
  2528                           	psect	text5
  2529   002AB4                     __ptext5:
  2530                           	callstack 0
  2531   002AB4                     _Stepper_fullTurn_CCW:
  2532                           	callstack 123
  2533   002AB4                     
  2534                           ;motor_paso.c: 305: void Stepper_fullTurn_CCW(Stepper *motor);motor_paso.c: 306: {;motor
      +                          _paso.c: 307:     Stepper_Move_CCW(motor,
  2535   002AB4  C518  F50D         	movff	Stepper_fullTurn_CCW@motor,Stepper_Move_CCW@motor
  2536   002AB8  C519  F50E         	movff	Stepper_fullTurn_CCW@motor+1,Stepper_Move_CCW@motor+1
  2537   002ABC  0E08               	movlw	8
  2538   002ABE  6E10               	movwf	(Stepper_Move_CCW@steps+1)^(0+1280),c
  2539   002AC0  0E00               	movlw	0
  2540   002AC2  6E0F               	movwf	Stepper_Move_CCW@steps^(0+1280),c
  2541   002AC4  6A12               	clrf	(Stepper_Move_CCW@delay_ms+1)^(0+1280),c
  2542   002AC6  0E05               	movlw	5
  2543   002AC8  6E11               	movwf	Stepper_Move_CCW@delay_ms^(0+1280),c
  2544   002ACA  EC13  F015         	call	_Stepper_Move_CCW	;wreg free
  2545   002ACE                     
  2546                           ;motor_paso.c: 310:     Stepper_Off(motor);
  2547   002ACE  C518  F509         	movff	Stepper_fullTurn_CCW@motor,Stepper_Off@motor
  2548   002AD2  C519  F50A         	movff	Stepper_fullTurn_CCW@motor+1,Stepper_Off@motor+1
  2549   002AD6  EC7B  F015         	call	_Stepper_Off	;wreg free
  2550   002ADA  0012               	return		;funcret
  2551   002ADC                     __end_of_Stepper_fullTurn_CCW:
  2552                           	callstack 0
  2553                           
  2554 ;; *************** function _Stepper_Off *****************
  2555 ;; Defined at:
  2556 ;;		line 321 in file "motor_paso.c"
  2557 ;; Parameters:    Size  Location     Type
  2558 ;;  motor           2    8[COMRAM] PTR struct .
  2559 ;;		 -> motor2(8), motor1(8), 
  2560 ;; Auto vars:     Size  Location     Type
  2561 ;;		None
  2562 ;; Return value:  Size  Location     Type
  2563 ;;                  1    wreg      void 
  2564 ;; Registers used:
  2565 ;;		wreg, fsr2l, fsr2h, status,2, status,0, cstack
  2566 ;; Tracked objects:
  2567 ;;		On entry : 0/0
  2568 ;;		On exit  : 0/0
  2569 ;;		Unchanged: 0/0
  2570 ;; Data sizes:     COMRAM   BANK5   BANK6   BANK7   BANK8   BANK9  BANK10  BANK11  BANK12  BANK13  BANK14  BANK15  BANK1
      +6  BANK17  BANK18  BANK19  BANK20  BANK21  BANK22  BANK23  BANK24  BANK25  BANK26  BANK27  BANK28  BANK29  BANK30  BANK3
      +1  BANK32  BANK33  BANK34  BANK35  BANK36
  2571 ;;      Params:         2       0       0       0       0       0       0       0       0       0       0       0       
      +0       0       0       0       0       0       0       0       0       0       0       0       0       0       0       
      +0       0       0       0       0       0
  2572 ;;      Locals:         0       0       0       0       0       0       0       0       0       0       0       0       
      +0       0       0       0       0       0       0       0       0       0       0       0       0       0       0       
      +0       0       0       0       0       0
  2573 ;;      Temps:          0       0       0       0       0       0       0       0       0       0       0       0       
      +0       0       0       0       0       0       0       0       0       0       0       0       0       0       0       
      +0       0       0       0       0       0
  2574 ;;      Totals:         2       0       0       0       0       0       0       0       0       0       0       0       
      +0       0       0       0       0       0       0       0       0       0       0       0       0       0       0       
      +0       0       0       0       0       0
  2575 ;;Total ram usage:        2 bytes
  2576 ;; Hardware stack levels used: 1
  2577 ;; This function calls:
  2578 ;;		_Stepper_Write
  2579 ;; This function is called by:
  2580 ;;		_main
  2581 ;;		_Stepper_fullTurn_CW
  2582 ;;		_Stepper_fullTurn_CCW
  2583 ;; This function uses a non-reentrant model
  2584 ;;
  2585                           
  2586                           	psect	text6
  2587   002AF6                     __ptext6:
  2588                           	callstack 0
  2589   002AF6                     _Stepper_Off:
  2590                           	callstack 125
  2591   002AF6                     
  2592                           ;motor_paso.c: 321: void Stepper_Off(Stepper *motor);motor_paso.c: 322: {;motor_paso.c: 
      +                          323:     Stepper_Write(motor, 0x00);
  2593   002AF6  C509  F501         	movff	Stepper_Off@motor,Stepper_Write@motor
  2594   002AFA  C50A  F502         	movff	Stepper_Off@motor+1,Stepper_Write@motor+1
  2595   002AFE  0E00               	movlw	0
  2596   002B00  6E03               	movwf	Stepper_Write@value^(0+1280),c
  2597   002B02  EC24  F014         	call	_Stepper_Write	;wreg free
  2598   002B06  0012               	return		;funcret
  2599   002B08                     __end_of_Stepper_Off:
  2600                           	callstack 0
  2601                           
  2602 ;; *************** function _Stepper_Move_CCW *****************
  2603 ;; Defined at:
  2604 ;;		line 265 in file "motor_paso.c"
  2605 ;; Parameters:    Size  Location     Type
  2606 ;;  motor           2   12[COMRAM] PTR struct .
  2607 ;;		 -> motor2(8), motor1(8), 
  2608 ;;  steps           2   14[COMRAM] unsigned short 
  2609 ;;  delay_ms        2   16[COMRAM] unsigned short 
  2610 ;; Auto vars:     Size  Location     Type
  2611 ;;  j               2   21[COMRAM] unsigned short 
  2612 ;;  i               2   19[COMRAM] unsigned short 
  2613 ;; Return value:  Size  Location     Type
  2614 ;;                  1    wreg      void 
  2615 ;; Registers used:
  2616 ;;		wreg, fsr2l, fsr2h, status,2, status,0, tblptrl, tblptrh, tblptru, cstack
  2617 ;; Tracked objects:
  2618 ;;		On entry : 0/0
  2619 ;;		On exit  : 0/0
  2620 ;;		Unchanged: 0/0
  2621 ;; Data sizes:     COMRAM   BANK5   BANK6   BANK7   BANK8   BANK9  BANK10  BANK11  BANK12  BANK13  BANK14  BANK15  BANK1
      +6  BANK17  BANK18  BANK19  BANK20  BANK21  BANK22  BANK23  BANK24  BANK25  BANK26  BANK27  BANK28  BANK29  BANK30  BANK3
      +1  BANK32  BANK33  BANK34  BANK35  BANK36
  2622 ;;      Params:         6       0       0       0       0       0       0       0       0       0       0       0       
      +0       0       0       0       0       0       0       0       0       0       0       0       0       0       0       
      +0       0       0       0       0       0
  2623 ;;      Locals:         4       0       0       0       0       0       0       0       0       0       0       0       
      +0       0       0       0       0       0       0       0       0       0       0       0       0       0       0       
      +0       0       0       0       0       0
  2624 ;;      Temps:          1       0       0       0       0       0       0       0       0       0       0       0       
      +0       0       0       0       0       0       0       0       0       0       0       0       0       0       0       
      +0       0       0       0       0       0
  2625 ;;      Totals:        11       0       0       0       0       0       0       0       0       0       0       0       
      +0       0       0       0       0       0       0       0       0       0       0       0       0       0       0       
      +0       0       0       0       0       0
  2626 ;;Total ram usage:       11 bytes
  2627 ;; Hardware stack levels used: 1
  2628 ;; Hardware stack levels required when called: 2
  2629 ;; This function calls:
  2630 ;;		_Stepper_Step_CCW
  2631 ;; This function is called by:
  2632 ;;		_Stepper_fullTurn_CCW
  2633 ;; This function uses a non-reentrant model
  2634 ;;
  2635                           
  2636                           	psect	text7
  2637   002A26                     __ptext7:
  2638                           	callstack 0
  2639   002A26                     _Stepper_Move_CCW:
  2640                           	callstack 123
  2641   002A26                     
  2642                           ;motor_paso.c: 265: void Stepper_Move_CCW(Stepper *motor, uint16_t steps, uint16_t delay
      +                          _ms);motor_paso.c: 266: {;motor_paso.c: 267:     uint16_t i;;motor_paso.c: 268:     uint
      +                          16_t j;;motor_paso.c: 270:     for(i = 0; i < steps; i++)
  2643   002A26  6A15               	clrf	(Stepper_Move_CCW@i+1)^(0+1280),c
  2644   002A28  0E00               	movlw	0
  2645   002A2A  6E14               	movwf	Stepper_Move_CCW@i^(0+1280),c
  2646   002A2C  EF3A  F015         	goto	l1051
  2647   002A30                     l1041:
  2648                           
  2649                           ;motor_paso.c: 271:     {;motor_paso.c: 275:         Stepper_Step_CCW(motor);
  2650   002A30  C50D  F509         	movff	Stepper_Move_CCW@motor,Stepper_Step_CCW@motor
  2651   002A34  C50E  F50A         	movff	Stepper_Move_CCW@motor+1,Stepper_Step_CCW@motor+1
  2652   002A38  EC77  F014         	call	_Stepper_Step_CCW	;wreg free
  2653   002A3C                     
  2654                           ;motor_paso.c: 280:         for(j = 0; j < delay_ms; j++)
  2655   002A3C  6A17               	clrf	(Stepper_Move_CCW@j+1)^(0+1280),c
  2656   002A3E  0E00               	movlw	0
  2657   002A40  6E16               	movwf	Stepper_Move_CCW@j^(0+1280),c
  2658   002A42  EF2D  F015         	goto	l76
  2659   002A46                     l1045:
  2660                           
  2661                           ;motor_paso.c: 281:         {;motor_paso.c: 282:             _delay((unsigned long)((1)*
      +                          (48000000UL/4000.0)));
  2662   002A46  0E10               	movlw	16
  2663   002A48  6E13               	movwf	??_Stepper_Move_CCW^(0+1280),c
  2664   002A4A  0E94               	movlw	148
  2665   002A4C                     u237:
  2666   002A4C  2EE8               	decfsz	wreg,f,c
  2667   002A4E  D7FE               	bra	u237
  2668   002A50  2E13               	decfsz	??_Stepper_Move_CCW^(0+1280),f,c
  2669   002A52  D7FC               	bra	u237
  2670   002A54  D000               	nop2	
  2671   002A56                     
  2672                           ;motor_paso.c: 283:         }
  2673   002A56  4A16               	infsnz	Stepper_Move_CCW@j^(0+1280),f,c
  2674   002A58  2A17               	incf	(Stepper_Move_CCW@j+1)^(0+1280),f,c
  2675   002A5A                     l76:
  2676   002A5A  5011               	movf	Stepper_Move_CCW@delay_ms^(0+1280),w,c
  2677   002A5C  5C16               	subwf	Stepper_Move_CCW@j^(0+1280),w,c
  2678   002A5E  5012               	movf	(Stepper_Move_CCW@delay_ms+1)^(0+1280),w,c
  2679   002A60  5817               	subwfb	(Stepper_Move_CCW@j+1)^(0+1280),w,c
  2680   002A62  A0D8               	btfss	status,0,c
  2681   002A64  EF36  F015         	goto	u141
  2682   002A68  EF38  F015         	goto	u140
  2683   002A6C                     u141:
  2684   002A6C  EF23  F015         	goto	l1045
  2685   002A70                     u140:
  2686   002A70                     
  2687                           ;motor_paso.c: 284:     }
  2688   002A70  4A14               	infsnz	Stepper_Move_CCW@i^(0+1280),f,c
  2689   002A72  2A15               	incf	(Stepper_Move_CCW@i+1)^(0+1280),f,c
  2690   002A74                     l1051:
  2691   002A74  500F               	movf	Stepper_Move_CCW@steps^(0+1280),w,c
  2692   002A76  5C14               	subwf	Stepper_Move_CCW@i^(0+1280),w,c
  2693   002A78  5010               	movf	(Stepper_Move_CCW@steps+1)^(0+1280),w,c
  2694   002A7A  5815               	subwfb	(Stepper_Move_CCW@i+1)^(0+1280),w,c
  2695   002A7C  A0D8               	btfss	status,0,c
  2696   002A7E  EF43  F015         	goto	u151
  2697   002A82  EF45  F015         	goto	u150
  2698   002A86                     u151:
  2699   002A86  EF18  F015         	goto	l1041
  2700   002A8A                     u150:
  2701   002A8A  0012               	return		;funcret
  2702   002A8C                     __end_of_Stepper_Move_CCW:
  2703                           	callstack 0
  2704                           
  2705 ;; *************** function _Stepper_Step_CCW *****************
  2706 ;; Defined at:
  2707 ;;		line 206 in file "motor_paso.c"
  2708 ;; Parameters:    Size  Location     Type
  2709 ;;  motor           2    8[COMRAM] PTR struct .
  2710 ;;		 -> motor2(8), motor1(8), 
  2711 ;; Auto vars:     Size  Location     Type
  2712 ;;		None
  2713 ;; Return value:  Size  Location     Type
  2714 ;;                  1    wreg      void 
  2715 ;; Registers used:
  2716 ;;		wreg, fsr2l, fsr2h, status,2, status,0, tblptrl, tblptrh, tblptru, cstack
  2717 ;; Tracked objects:
  2718 ;;		On entry : 0/0
  2719 ;;		On exit  : 0/0
  2720 ;;		Unchanged: 0/0
  2721 ;; Data sizes:     COMRAM   BANK5   BANK6   BANK7   BANK8   BANK9  BANK10  BANK11  BANK12  BANK13  BANK14  BANK15  BANK1
      +6  BANK17  BANK18  BANK19  BANK20  BANK21  BANK22  BANK23  BANK24  BANK25  BANK26  BANK27  BANK28  BANK29  BANK30  BANK3
      +1  BANK32  BANK33  BANK34  BANK35  BANK36
  2722 ;;      Params:         2       0       0       0       0       0       0       0       0       0       0       0       
      +0       0       0       0       0       0       0       0       0       0       0       0       0       0       0       
      +0       0       0       0       0       0
  2723 ;;      Locals:         0       0       0       0       0       0       0       0       0       0       0       0       
      +0       0       0       0       0       0       0       0       0       0       0       0       0       0       0       
      +0       0       0       0       0       0
  2724 ;;      Temps:          2       0       0       0       0       0       0       0       0       0       0       0       
      +0       0       0       0       0       0       0       0       0       0       0       0       0       0       0       
      +0       0       0       0       0       0
  2725 ;;      Totals:         4       0       0       0       0       0       0       0       0       0       0       0       
      +0       0       0       0       0       0       0       0       0       0       0       0       0       0       0       
      +0       0       0       0       0       0
  2726 ;;Total ram usage:        4 bytes
  2727 ;; Hardware stack levels used: 1
  2728 ;; Hardware stack levels required when called: 1
  2729 ;; This function calls:
  2730 ;;		_Stepper_Write
  2731 ;; This function is called by:
  2732 ;;		_Stepper_Move_CCW
  2733 ;; This function uses a non-reentrant model
  2734 ;;
  2735                           
  2736                           	psect	text8
  2737   0028EE                     __ptext8:
  2738                           	callstack 0
  2739   0028EE                     _Stepper_Step_CCW:
  2740                           	callstack 123
  2741   0028EE                     
  2742                           ;motor_paso.c: 206: void Stepper_Step_CCW(Stepper *motor);motor_paso.c: 207: {;motor_pas
      +                          o.c: 211:     Stepper_Write(motor, full_step_sequence[motor->index]);
  2743   0028EE  C509  F501         	movff	Stepper_Step_CCW@motor,Stepper_Write@motor
  2744   0028F2  C50A  F502         	movff	Stepper_Step_CCW@motor+1,Stepper_Write@motor+1
  2745   0028F6  EE20 F007          	lfsr	2,7
  2746   0028FA  5009               	movf	Stepper_Step_CCW@motor^(0+1280),w,c
  2747   0028FC  26D9               	addwf	fsr2l,f,c
  2748   0028FE  500A               	movf	(Stepper_Step_CCW@motor+1)^(0+1280),w,c
  2749   002900  22DA               	addwfc	fsr2h,f,c
  2750   002902  50DF               	movf	indf2,w,c
  2751   002904  6E0B               	movwf	??_Stepper_Step_CCW^(0+1280),c
  2752   002906  500B               	movf	??_Stepper_Step_CCW^(0+1280),w,c
  2753   002908  0F01               	addlw	low _full_step_sequence
  2754   00290A  6E0C               	movwf	(??_Stepper_Step_CCW+1)^(0+1280),c
  2755   00290C  C50C  F4F6         	movff	??_Stepper_Step_CCW+1,tblptrl
  2756   002910                     	if	0	;There is only one active tblptr byte
  2757   002910                     	endif
  2758   002910                     	if	0	;tblptru may be non-zero
  2759   002910                     	endif
  2760   002910                     	if	0	;tblptru may be non-zero
  2761   002910                     	endif
  2762   002910  0008               	tblrd		*
  2763   002912  C4F5 F503          	movff	tablat,Stepper_Write@value
  2764   002916  EC24  F014         	call	_Stepper_Write	;wreg free
  2765   00291A                     
  2766                           ;motor_paso.c: 216:     if(motor->index == 0)
  2767   00291A  EE20 F007          	lfsr	2,7
  2768   00291E  5009               	movf	Stepper_Step_CCW@motor^(0+1280),w,c
  2769   002920  26D9               	addwf	fsr2l,f,c
  2770   002922  500A               	movf	(Stepper_Step_CCW@motor+1)^(0+1280),w,c
  2771   002924  22DA               	addwfc	fsr2h,f,c
  2772   002926  50DF               	movf	indf2,w,c
  2773   002928  A4D8               	btfss	status,2,c
  2774   00292A  EF99  F014         	goto	u111
  2775   00292E  EF9B  F014         	goto	u110
  2776   002932                     u111:
  2777   002932  EFA5  F014         	goto	l1021
  2778   002936                     u110:
  2779   002936                     
  2780                           ;motor_paso.c: 217:     {;motor_paso.c: 218:         motor->index = 3;
  2781   002936  EE20 F007          	lfsr	2,7
  2782   00293A  5009               	movf	Stepper_Step_CCW@motor^(0+1280),w,c
  2783   00293C  26D9               	addwf	fsr2l,f,c
  2784   00293E  500A               	movf	(Stepper_Step_CCW@motor+1)^(0+1280),w,c
  2785   002940  22DA               	addwfc	fsr2h,f,c
  2786   002942  0E03               	movlw	3
  2787   002944  6EDF               	movwf	indf2,c
  2788                           
  2789                           ;motor_paso.c: 219:     }
  2790   002946  EFAC  F014         	goto	l62
  2791   00294A                     l1021:
  2792                           
  2793                           ;motor_paso.c: 221:     {;motor_paso.c: 222:         motor->index--;
  2794   00294A  EE20 F007          	lfsr	2,7
  2795   00294E  5009               	movf	Stepper_Step_CCW@motor^(0+1280),w,c
  2796   002950  26D9               	addwf	fsr2l,f,c
  2797   002952  500A               	movf	(Stepper_Step_CCW@motor+1)^(0+1280),w,c
  2798   002954  22DA               	addwfc	fsr2h,f,c
  2799   002956  06DF               	decf	indf2,f,c
  2800   002958                     l62:
  2801   002958  0012               	return		;funcret
  2802   00295A                     __end_of_Stepper_Step_CCW:
  2803                           	callstack 0
  2804                           
  2805 ;; *************** function _Stepper_Write *****************
  2806 ;; Defined at:
  2807 ;;		line 48 in file "motor_paso.c"
  2808 ;; Parameters:    Size  Location     Type
  2809 ;;  motor           2    0[COMRAM] PTR struct .
  2810 ;;		 -> motor2(8), motor1(8), 
  2811 ;;  value           1    2[COMRAM] unsigned char 
  2812 ;; Auto vars:     Size  Location     Type
  2813 ;;  output_value    1    7[COMRAM] unsigned char 
  2814 ;;  mask            1    0        unsigned char 
  2815 ;; Return value:  Size  Location     Type
  2816 ;;                  1    wreg      void 
  2817 ;; Registers used:
  2818 ;;		wreg, fsr2l, fsr2h, status,2, status,0
  2819 ;; Tracked objects:
  2820 ;;		On entry : 0/0
  2821 ;;		On exit  : 0/0
  2822 ;;		Unchanged: 0/0
  2823 ;; Data sizes:     COMRAM   BANK5   BANK6   BANK7   BANK8   BANK9  BANK10  BANK11  BANK12  BANK13  BANK14  BANK15  BANK1
      +6  BANK17  BANK18  BANK19  BANK20  BANK21  BANK22  BANK23  BANK24  BANK25  BANK26  BANK27  BANK28  BANK29  BANK30  BANK3
      +1  BANK32  BANK33  BANK34  BANK35  BANK36
  2824 ;;      Params:         3       0       0       0       0       0       0       0       0       0       0       0       
      +0       0       0       0       0       0       0       0       0       0       0       0       0       0       0       
      +0       0       0       0       0       0
  2825 ;;      Locals:         1       0       0       0       0       0       0       0       0       0       0       0       
      +0       0       0       0       0       0       0       0       0       0       0       0       0       0       0       
      +0       0       0       0       0       0
  2826 ;;      Temps:          4       0       0       0       0       0       0       0       0       0       0       0       
      +0       0       0       0       0       0       0       0       0       0       0       0       0       0       0       
      +0       0       0       0       0       0
  2827 ;;      Totals:         8       0       0       0       0       0       0       0       0       0       0       0       
      +0       0       0       0       0       0       0       0       0       0       0       0       0       0       0       
      +0       0       0       0       0       0
  2828 ;;Total ram usage:        8 bytes
  2829 ;; Hardware stack levels used: 1
  2830 ;; This function calls:
  2831 ;;		Nothing
  2832 ;; This function is called by:
  2833 ;;		_Stepper_Step_CW
  2834 ;;		_Stepper_Step_CCW
  2835 ;;		_Stepper_Off
  2836 ;; This function uses a non-reentrant model
  2837 ;;
  2838                           
  2839                           	psect	text9
  2840   002848                     __ptext9:
  2841                           	callstack 0
  2842   002848                     _Stepper_Write:
  2843                           	callstack 123
  2844   002848                     
  2845                           ;motor_paso.c: 48: static void Stepper_Write(Stepper *motor, uint8_t value);motor_paso.c
      +                          : 49: {;motor_paso.c: 50:     uint8_t mask;;motor_paso.c: 51:     uint8_t output_value;;
      +                          motor_paso.c: 53:     if(motor->nibble == 0)
  2846   002848  EE20 F006          	lfsr	2,6
  2847   00284C  5001               	movf	Stepper_Write@motor^(0+1280),w,c
  2848   00284E  26D9               	addwf	fsr2l,f,c
  2849   002850  5002               	movf	(Stepper_Write@motor+1)^(0+1280),w,c
  2850   002852  22DA               	addwfc	fsr2h,f,c
  2851   002854  50DF               	movf	indf2,w,c
  2852   002856  A4D8               	btfss	status,2,c
  2853   002858  EF30  F014         	goto	u91
  2854   00285C  EF32  F014         	goto	u90
  2855   002860                     u91:
  2856   002860  EF53  F014         	goto	l1001
  2857   002864                     u90:
  2858   002864                     
  2859                           ;motor_paso.c: 64:         output_value = value & 0x0F;
  2860   002864  5003               	movf	Stepper_Write@value^(0+1280),w,c
  2861   002866  0B0F               	andlw	15
  2862   002868  6E08               	movwf	Stepper_Write@output_value^(0+1280),c
  2863   00286A                     
  2864                           ;motor_paso.c: 70:         *(motor->lat) = (uint8_t)((*(motor->lat) & (uint8_t)(~mask)) 
      +                          | output_value);
  2865   00286A  C501  F4D9         	movff	Stepper_Write@motor,fsr2l
  2866   00286E  C502  F4DA         	movff	Stepper_Write@motor+1,fsr2h
  2867   002872  C4DE F504          	movff	postinc2,??_Stepper_Write
  2868   002876  C4DD F505          	movff	postdec2,??_Stepper_Write+1
  2869   00287A  C504  F4D9         	movff	??_Stepper_Write,fsr2l
  2870   00287E  C505  F4DA         	movff	??_Stepper_Write+1,fsr2h
  2871   002882  50DF               	movf	indf2,w,c
  2872   002884  0BF0               	andlw	240
  2873   002886  1008               	iorwf	Stepper_Write@output_value^(0+1280),w,c
  2874   002888  C501  F4D9         	movff	Stepper_Write@motor,fsr2l
  2875   00288C  C502  F4DA         	movff	Stepper_Write@motor+1,fsr2h
  2876   002890  C4DE F506          	movff	postinc2,??_Stepper_Write+2
  2877   002894  C4DD F507          	movff	postdec2,??_Stepper_Write+3
  2878   002898  C506  F4D9         	movff	??_Stepper_Write+2,fsr2l
  2879   00289C  C507  F4DA         	movff	??_Stepper_Write+3,fsr2h
  2880   0028A0  6EDF               	movwf	indf2,c
  2881                           
  2882                           ;motor_paso.c: 71:     }
  2883   0028A2  EF76  F014         	goto	l48
  2884   0028A6                     l1001:
  2885   0028A6                     
  2886                           ;motor_paso.c: 83:         output_value = (uint8_t)((value & 0x0F) << 4);
  2887   0028A6  C503  F504         	movff	Stepper_Write@value,??_Stepper_Write
  2888   0028AA  0E0F               	movlw	15
  2889   0028AC  1604               	andwf	??_Stepper_Write^(0+1280),f,c
  2890   0028AE  3804               	swapf	??_Stepper_Write^(0+1280),w,c
  2891   0028B0  0BF0               	andlw	240
  2892   0028B2  6E08               	movwf	Stepper_Write@output_value^(0+1280),c
  2893   0028B4                     
  2894                           ;motor_paso.c: 89:         *(motor->lat) = (uint8_t)((*(motor->lat) & (uint8_t)(~mask)) 
      +                          | output_value);
  2895   0028B4  C501  F4D9         	movff	Stepper_Write@motor,fsr2l
  2896   0028B8  C502  F4DA         	movff	Stepper_Write@motor+1,fsr2h
  2897   0028BC  C4DE F504          	movff	postinc2,??_Stepper_Write
  2898   0028C0  C4DD F505          	movff	postdec2,??_Stepper_Write+1
  2899   0028C4  C504  F4D9         	movff	??_Stepper_Write,fsr2l
  2900   0028C8  C505  F4DA         	movff	??_Stepper_Write+1,fsr2h
  2901   0028CC  50DF               	movf	indf2,w,c
  2902   0028CE  0B0F               	andlw	15
  2903   0028D0  1008               	iorwf	Stepper_Write@output_value^(0+1280),w,c
  2904   0028D2  C501  F4D9         	movff	Stepper_Write@motor,fsr2l
  2905   0028D6  C502  F4DA         	movff	Stepper_Write@motor+1,fsr2h
  2906   0028DA  C4DE F506          	movff	postinc2,??_Stepper_Write+2
  2907   0028DE  C4DD F507          	movff	postdec2,??_Stepper_Write+3
  2908   0028E2  C506  F4D9         	movff	??_Stepper_Write+2,fsr2l
  2909   0028E6  C507  F4DA         	movff	??_Stepper_Write+3,fsr2h
  2910   0028EA  6EDF               	movwf	indf2,c
  2911   0028EC                     l48:
  2912   0028EC  0012               	return		;funcret
  2913   0028EE                     __end_of_Stepper_Write:
  2914                           	callstack 0
  2915                           
  2916 ;; *************** function _Stepper_Init *****************
  2917 ;; Defined at:
  2918 ;;		line 103 in file "motor_paso.c"
  2919 ;; Parameters:    Size  Location     Type
  2920 ;;  motor           2    0[COMRAM] PTR struct .
  2921 ;;		 -> motor2(8), motor1(8), 
  2922 ;;  lat             2    2[COMRAM] PTR volatile unsigned ch
  2923 ;;		 -> LATD(1), 
  2924 ;;  tris            2    4[COMRAM] PTR volatile unsigned ch
  2925 ;;		 -> TRISD(1), 
  2926 ;;  ansel           2    6[COMRAM] PTR volatile unsigned ch
  2927 ;;		 -> ANSELD(1), 
  2928 ;;  nibble          1    8[COMRAM] unsigned char 
  2929 ;; Auto vars:     Size  Location     Type
  2930 ;;		None
  2931 ;; Return value:  Size  Location     Type
  2932 ;;                  1    wreg      void 
  2933 ;; Registers used:
  2934 ;;		wreg, fsr2l, fsr2h, status,2, status,0
  2935 ;; Tracked objects:
  2936 ;;		On entry : 0/0
  2937 ;;		On exit  : 0/0
  2938 ;;		Unchanged: 0/0
  2939 ;; Data sizes:     COMRAM   BANK5   BANK6   BANK7   BANK8   BANK9  BANK10  BANK11  BANK12  BANK13  BANK14  BANK15  BANK1
      +6  BANK17  BANK18  BANK19  BANK20  BANK21  BANK22  BANK23  BANK24  BANK25  BANK26  BANK27  BANK28  BANK29  BANK30  BANK3
      +1  BANK32  BANK33  BANK34  BANK35  BANK36
  2940 ;;      Params:         9       0       0       0       0       0       0       0       0       0       0       0       
      +0       0       0       0       0       0       0       0       0       0       0       0       0       0       0       
      +0       0       0       0       0       0
  2941 ;;      Locals:         0       0       0       0       0       0       0       0       0       0       0       0       
      +0       0       0       0       0       0       0       0       0       0       0       0       0       0       0       
      +0       0       0       0       0       0
  2942 ;;      Temps:          2       0       0       0       0       0       0       0       0       0       0       0       
      +0       0       0       0       0       0       0       0       0       0       0       0       0       0       0       
      +0       0       0       0       0       0
  2943 ;;      Totals:        11       0       0       0       0       0       0       0       0       0       0       0       
      +0       0       0       0       0       0       0       0       0       0       0       0       0       0       0       
      +0       0       0       0       0       0
  2944 ;;Total ram usage:       11 bytes
  2945 ;; Hardware stack levels used: 1
  2946 ;; This function calls:
  2947 ;;		Nothing
  2948 ;; This function is called by:
  2949 ;;		_main
  2950 ;; This function uses a non-reentrant model
  2951 ;;
  2952                           
  2953                           	psect	text10
  2954   002606                     __ptext10:
  2955                           	callstack 0
  2956   002606                     _Stepper_Init:
  2957                           	callstack 126
  2958   002606                     
  2959                           ;motor_paso.c: 103: void Stepper_Init(Stepper *motor,;motor_paso.c: 104:                
      +                             volatile uint8_t *lat,;motor_paso.c: 105:                   volatile uint8_t *tris,;m
      +                          otor_paso.c: 106:                   volatile uint8_t *ansel,;motor_paso.c: 107:         
      +                                    uint8_t nibble);motor_paso.c: 108: {;motor_paso.c: 113:     motor->lat = lat;
  2960   002606  C501  F4D9         	movff	Stepper_Init@motor,fsr2l
  2961   00260A  C502  F4DA         	movff	Stepper_Init@motor+1,fsr2h
  2962   00260E  C503  F4DE         	movff	Stepper_Init@lat,postinc2
  2963   002612  C504  F4DD         	movff	Stepper_Init@lat+1,postdec2
  2964   002616                     
  2965                           ;motor_paso.c: 114:     motor->tris = tris;
  2966   002616  EE20 F002          	lfsr	2,2
  2967   00261A  5001               	movf	Stepper_Init@motor^(0+1280),w,c
  2968   00261C  26D9               	addwf	fsr2l,f,c
  2969   00261E  5002               	movf	(Stepper_Init@motor+1)^(0+1280),w,c
  2970   002620  22DA               	addwfc	fsr2h,f,c
  2971   002622  C505  F4DE         	movff	Stepper_Init@tris,postinc2
  2972   002626  C506  F4DD         	movff	Stepper_Init@tris+1,postdec2
  2973   00262A                     
  2974                           ;motor_paso.c: 115:     motor->ansel = ansel;
  2975   00262A  EE20 F004          	lfsr	2,4
  2976   00262E  5001               	movf	Stepper_Init@motor^(0+1280),w,c
  2977   002630  26D9               	addwf	fsr2l,f,c
  2978   002632  5002               	movf	(Stepper_Init@motor+1)^(0+1280),w,c
  2979   002634  22DA               	addwfc	fsr2h,f,c
  2980   002636  C507  F4DE         	movff	Stepper_Init@ansel,postinc2
  2981   00263A  C508  F4DD         	movff	Stepper_Init@ansel+1,postdec2
  2982   00263E                     
  2983                           ;motor_paso.c: 120:     motor->nibble = nibble;
  2984   00263E  EE20 F006          	lfsr	2,6
  2985   002642  5001               	movf	Stepper_Init@motor^(0+1280),w,c
  2986   002644  26D9               	addwf	fsr2l,f,c
  2987   002646  5002               	movf	(Stepper_Init@motor+1)^(0+1280),w,c
  2988   002648  22DA               	addwfc	fsr2h,f,c
  2989   00264A  C509  F4DF         	movff	Stepper_Init@nibble,indf2
  2990   00264E                     
  2991                           ;motor_paso.c: 125:     motor->index = 0;
  2992   00264E  EE20 F007          	lfsr	2,7
  2993   002652  5001               	movf	Stepper_Init@motor^(0+1280),w,c
  2994   002654  26D9               	addwf	fsr2l,f,c
  2995   002656  5002               	movf	(Stepper_Init@motor+1)^(0+1280),w,c
  2996   002658  22DA               	addwfc	fsr2h,f,c
  2997   00265A  6ADF               	clrf	indf2,c
  2998   00265C                     
  2999                           ;motor_paso.c: 127:     if(motor->nibble == 0)
  3000   00265C  EE20 F006          	lfsr	2,6
  3001   002660  5001               	movf	Stepper_Init@motor^(0+1280),w,c
  3002   002662  26D9               	addwf	fsr2l,f,c
  3003   002664  5002               	movf	(Stepper_Init@motor+1)^(0+1280),w,c
  3004   002666  22DA               	addwfc	fsr2h,f,c
  3005   002668  50DF               	movf	indf2,w,c
  3006   00266A  A4D8               	btfss	status,2,c
  3007   00266C  EF3A  F013         	goto	u161
  3008   002670  EF3C  F013         	goto	u160
  3009   002674                     u161:
  3010   002674  EF6C  F013         	goto	l1069
  3011   002678                     u160:
  3012   002678                     
  3013                           ;motor_paso.c: 128:     {;motor_paso.c: 136:         *(motor->tris) &= 0xF0;
  3014   002678  EE20 F002          	lfsr	2,2
  3015   00267C  5001               	movf	Stepper_Init@motor^(0+1280),w,c
  3016   00267E  26D9               	addwf	fsr2l,f,c
  3017   002680  5002               	movf	(Stepper_Init@motor+1)^(0+1280),w,c
  3018   002682  22DA               	addwfc	fsr2h,f,c
  3019   002684  C4DE F50A          	movff	postinc2,??_Stepper_Init
  3020   002688  C4DD F50B          	movff	postdec2,??_Stepper_Init+1
  3021   00268C  C50A  F4D9         	movff	??_Stepper_Init,fsr2l
  3022   002690  C50B  F4DA         	movff	??_Stepper_Init+1,fsr2h
  3023   002694  0EF0               	movlw	240
  3024   002696  16DF               	andwf	indf2,f,c
  3025                           
  3026                           ;motor_paso.c: 145:         *(motor->ansel) &= 0xF0;
  3027   002698  EE20 F004          	lfsr	2,4
  3028   00269C  5001               	movf	Stepper_Init@motor^(0+1280),w,c
  3029   00269E  26D9               	addwf	fsr2l,f,c
  3030   0026A0  5002               	movf	(Stepper_Init@motor+1)^(0+1280),w,c
  3031   0026A2  22DA               	addwfc	fsr2h,f,c
  3032   0026A4  C4DE F50A          	movff	postinc2,??_Stepper_Init
  3033   0026A8  C4DD F50B          	movff	postdec2,??_Stepper_Init+1
  3034   0026AC  C50A  F4D9         	movff	??_Stepper_Init,fsr2l
  3035   0026B0  C50B  F4DA         	movff	??_Stepper_Init+1,fsr2h
  3036   0026B4  0EF0               	movlw	240
  3037   0026B6  16DF               	andwf	indf2,f,c
  3038   0026B8                     
  3039                           ;motor_paso.c: 150:         *(motor->lat) &= 0xF0;
  3040   0026B8  C501  F4D9         	movff	Stepper_Init@motor,fsr2l
  3041   0026BC  C502  F4DA         	movff	Stepper_Init@motor+1,fsr2h
  3042   0026C0  C4DE F50A          	movff	postinc2,??_Stepper_Init
  3043   0026C4  C4DD F50B          	movff	postdec2,??_Stepper_Init+1
  3044   0026C8  C50A  F4D9         	movff	??_Stepper_Init,fsr2l
  3045   0026CC  C50B  F4DA         	movff	??_Stepper_Init+1,fsr2h
  3046   0026D0  0EF0               	movlw	240
  3047   0026D2  16DF               	andwf	indf2,f,c
  3048                           
  3049                           ;motor_paso.c: 151:     }
  3050   0026D4  EF9A  F013         	goto	l53
  3051   0026D8                     l1069:
  3052                           
  3053                           ;motor_paso.c: 153:     {;motor_paso.c: 157:         *(motor->tris) &= 0x0F;
  3054   0026D8  EE20 F002          	lfsr	2,2
  3055   0026DC  5001               	movf	Stepper_Init@motor^(0+1280),w,c
  3056   0026DE  26D9               	addwf	fsr2l,f,c
  3057   0026E0  5002               	movf	(Stepper_Init@motor+1)^(0+1280),w,c
  3058   0026E2  22DA               	addwfc	fsr2h,f,c
  3059   0026E4  C4DE F50A          	movff	postinc2,??_Stepper_Init
  3060   0026E8  C4DD F50B          	movff	postdec2,??_Stepper_Init+1
  3061   0026EC  C50A  F4D9         	movff	??_Stepper_Init,fsr2l
  3062   0026F0  C50B  F4DA         	movff	??_Stepper_Init+1,fsr2h
  3063   0026F4  0E0F               	movlw	15
  3064   0026F6  16DF               	andwf	indf2,f,c
  3065                           
  3066                           ;motor_paso.c: 162:         *(motor->ansel) &= 0x0F;
  3067   0026F8  EE20 F004          	lfsr	2,4
  3068   0026FC  5001               	movf	Stepper_Init@motor^(0+1280),w,c
  3069   0026FE  26D9               	addwf	fsr2l,f,c
  3070   002700  5002               	movf	(Stepper_Init@motor+1)^(0+1280),w,c
  3071   002702  22DA               	addwfc	fsr2h,f,c
  3072   002704  C4DE F50A          	movff	postinc2,??_Stepper_Init
  3073   002708  C4DD F50B          	movff	postdec2,??_Stepper_Init+1
  3074   00270C  C50A  F4D9         	movff	??_Stepper_Init,fsr2l
  3075   002710  C50B  F4DA         	movff	??_Stepper_Init+1,fsr2h
  3076   002714  0E0F               	movlw	15
  3077   002716  16DF               	andwf	indf2,f,c
  3078   002718                     
  3079                           ;motor_paso.c: 167:         *(motor->lat) &= 0x0F;
  3080   002718  C501  F4D9         	movff	Stepper_Init@motor,fsr2l
  3081   00271C  C502  F4DA         	movff	Stepper_Init@motor+1,fsr2h
  3082   002720  C4DE F50A          	movff	postinc2,??_Stepper_Init
  3083   002724  C4DD F50B          	movff	postdec2,??_Stepper_Init+1
  3084   002728  C50A  F4D9         	movff	??_Stepper_Init,fsr2l
  3085   00272C  C50B  F4DA         	movff	??_Stepper_Init+1,fsr2h
  3086   002730  0E0F               	movlw	15
  3087   002732  16DF               	andwf	indf2,f,c
  3088   002734                     l53:
  3089   002734  0012               	return		;funcret
  3090   002736                     __end_of_Stepper_Init:
  3091                           	callstack 0
  3092                           
  3093                           	psect	rparam
  3094   000001                     ___rparam_used  equ	1
  3095   000000                     ___param_bank   equ	0
  3096   000000                     __Lparam        equ	__Lrparam
  3097   000000                     __Hparam        equ	__Hrparam
  3098                           
  3099                           	psect	config
  3100                           
  3101                           ;Config register CONFIG1 @ 0x300000
  3102                           ;	External Oscillator Selection
  3103                           ;	FEXTOSC = OFF, Oscillator not enabled
  3104                           ;	Reset Oscillator Selection
  3105                           ;	RSTOSC = EXTOSC, EXTOSC operating per FEXTOSC bits (device manufacturing default)
  3106   300000                     	org	3145728
  3107   300000  FC                 	db	252
  3108                           
  3109                           ;Config register CONFIG2 @ 0x300001
  3110                           ;	Clock out Enable bit
  3111                           ;	CLKOUTEN = OFF, CLKOUT function is disabled
  3112                           ;	PRLOCKED One-Way Set Enable bit
  3113                           ;	PR1WAY = ON, PRLOCKED bit can be cleared and set only once
  3114                           ;	Clock Switch Enable bit
  3115                           ;	CSWEN = ON, Writing to NOSC and NDIV is allowed
  3116                           ;	Fail-Safe Clock Monitor Enable bit
  3117                           ;	FCMEN = ON, Fail-Safe Clock Monitor enabled
  3118   300001                     	org	3145729
  3119   300001  FF                 	db	255
  3120                           
  3121                           ;Config register CONFIG3 @ 0x300002
  3122                           ;	MCLR Enable bit
  3123                           ;	MCLRE = EXTMCLR, If LVP = 0, MCLR pin is MCLR; If LVP = 1, RE3 pin function is MCLR
  3124                           ;	Power-up timer selection bits
  3125                           ;	PWRTS = PWRT_64, PWRT set at 64ms
  3126                           ;	Multi-vector enable bit
  3127                           ;	MVECEN = ON, Multi-vector enabled, Vector table used for interrupts
  3128                           ;	IVTLOCK bit One-way set enable bit
  3129                           ;	IVT1WAY = ON, IVTLOCKED bit can be cleared and set only once
  3130                           ;	Low Power BOR Enable bit
  3131                           ;	LPBOREN = OFF, Low-Power BOR disabled
  3132                           ;	Brown-out Reset Enable bits
  3133                           ;	BOREN = OFF, Brown-out Reset disabled
  3134   300002                     	org	3145730
  3135   300002  3D                 	db	61
  3136                           
  3137                           ;Config register CONFIG4 @ 0x300003
  3138                           ;	Brown-out Reset Voltage Selection bits
  3139                           ;	BORV = VBOR_1P9, Brown-out Reset Voltage (VBOR) set to 1.9V
  3140                           ;	ZCD Disable bit
  3141                           ;	ZCD = OFF, ZCD module is disabled. ZCD can be enabled by setting the ZCDSEN bit of ZCD
      +                          CON
  3142                           ;	PPSLOCK bit One-Way Set Enable bit
  3143                           ;	PPS1WAY = ON, PPSLOCKED bit can be cleared and set only once; PPS registers remain loc
      +                          ked after one clear/set cycle
  3144                           ;	Stack Full/Underflow Reset Enable bit
  3145                           ;	STVREN = ON, Stack full/underflow will cause Reset
  3146                           ;	Low Voltage Programming Enable bit
  3147                           ;	LVP = OFF, HV on MCLR/VPP must be used for programming
  3148                           ;	Extended Instruction Set Enable bit
  3149                           ;	XINST = OFF, Extended Instruction Set and Indexed Addressing Mode disabled
  3150   300003                     	org	3145731
  3151   300003  DF                 	db	223
  3152                           
  3153                           ;Config register CONFIG5 @ 0x300004
  3154                           ;	WDT Period selection bits
  3155                           ;	WDTCPS = WDTCPS_31, Divider ratio 1:65536; software control of WDTPS
  3156                           ;	WDT operating mode
  3157                           ;	WDTE = OFF, WDT Disabled; SWDTEN is ignored
  3158   300004                     	org	3145732
  3159   300004  9F                 	db	159
  3160                           
  3161                           ;Config register CONFIG6 @ 0x300005
  3162                           ;	WDT Window Select bits
  3163                           ;	WDTCWS = WDTCWS_7, window always open (100%); software control; keyed access not requi
      +                          red
  3164                           ;	WDT input clock selector
  3165                           ;	WDTCCS = SC, Software Control
  3166   300005                     	org	3145733
  3167   300005  FF                 	db	255
  3168                           
  3169                           ;Config register CONFIG7 @ 0x300006
  3170                           ;	Boot Block Size selection bits
  3171                           ;	BBSIZE = BBSIZE_512, Boot Block size is 512 words
  3172                           ;	Boot Block enable bit
  3173                           ;	BBEN = OFF, Boot block disabled
  3174                           ;	Storage Area Flash enable bit
  3175                           ;	SAFEN = OFF, SAF disabled
  3176                           ;	Background Debugger
  3177                           ;	DEBUG = OFF, Background Debugger disabled
  3178   300006                     	org	3145734
  3179   300006  FF                 	db	255
  3180                           
  3181                           ;Config register CONFIG8 @ 0x300007
  3182                           ;	Boot Block Write Protection bit
  3183                           ;	WRTB = OFF, Boot Block not Write protected
  3184                           ;	Configuration Register Write Protection bit
  3185                           ;	WRTC = OFF, Configuration registers not Write protected
  3186                           ;	Data EEPROM Write Protection bit
  3187                           ;	WRTD = OFF, Data EEPROM not Write protected
  3188                           ;	SAF Write protection bit
  3189                           ;	WRTSAF = OFF, SAF not Write Protected
  3190                           ;	Application Block write protection bit
  3191                           ;	WRTAPP = OFF, Application Block not write protected
  3192   300007                     	org	3145735
  3193   300007  FF                 	db	255
  3194                           
  3195                           ;Config register CONFIG10 @ 0x300009
  3196                           ;	PFM and Data EEPROM Code Protection bit
  3197                           ;	CP = OFF, PFM and Data EEPROM code protection disabled
  3198   300009                     	org	3145737
  3199   300009  FF                 	db	255
  3200                           tosu	equ	0x4FF
  3201                           tosh	equ	0x4FE
  3202                           tosl	equ	0x4FD
  3203                           stkptr	equ	0x4FC
  3204                           pclatu	equ	0x4FB
  3205                           pclath	equ	0x4FA
  3206                           pcl	equ	0x4F9
  3207                           tblptru	equ	0x4F8
  3208                           tblptrh	equ	0x4F7
  3209                           tblptrl	equ	0x4F6
  3210                           tablat	equ	0x4F5
  3211                           prodh	equ	0x4F4
  3212                           prodl	equ	0x4F3
  3213                           indf0	equ	0x4EF
  3214                           postinc0	equ	0x4EE
  3215                           postdec0	equ	0x4ED
  3216                           preinc0	equ	0x4EC
  3217                           plusw0	equ	0x4EB
  3218                           fsr0h	equ	0x4EA
  3219                           fsr0l	equ	0x4E9
  3220                           wreg	equ	0x4E8
  3221                           indf1	equ	0x4E7
  3222                           postinc1	equ	0x4E6
  3223                           postdec1	equ	0x4E5
  3224                           preinc1	equ	0x4E4
  3225                           plusw1	equ	0x4E3
  3226                           fsr1h	equ	0x4E2
  3227                           fsr1l	equ	0x4E1
  3228                           bsr	equ	0x4E0
  3229                           indf2	equ	0x4DF
  3230                           postinc2	equ	0x4DE
  3231                           postdec2	equ	0x4DD
  3232                           preinc2	equ	0x4DC
  3233                           plusw2	equ	0x4DB
  3234                           fsr2h	equ	0x4DA
  3235                           fsr2l	equ	0x4D9
  3236                           status	equ	0x4D8

Data Sizes:
    Strings     0
    Constant    4
    Data        0
    BSS         16
    Persistent  0
    Stack       0

Auto Spaces:
    Space          Size  Autos    Used
    COMRAM           95     27      43
    BANK5           160      0       0
    BANK6           256      0       0
    BANK7           256      0       0
    BANK8           256      0       0
    BANK9           256      0       0
    BANK10          256      0       0
    BANK11          256      0       0
    BANK12          256      0       0
    BANK13          256      0       0
    BANK14          256      0       0
    BANK15          256      0       0
    BANK16          256      0       0
    BANK17          256      0       0
    BANK18          256      0       0
    BANK19          256      0       0
    BANK20          256      0       0
    BANK21          256      0       0
    BANK22          256      0       0
    BANK23          256      0       0
    BANK24          256      0       0
    BANK25          256      0       0
    BANK26          256      0       0
    BANK27          256      0       0
    BANK28          256      0       0
    BANK29          256      0       0
    BANK30          256      0       0
    BANK31          256      0       0
    BANK32          256      0       0
    BANK33          256      0       0
    BANK34          256      0       0
    BANK35          256      0       0
    BANK36          256      0       0

Pointer List with Targets:

    motor1$ansel	PTR volatile unsigned char  size(2) Largest target is 1
		 -> ANSELD(SFR_4[1]), 

    motor1$lat	PTR volatile unsigned char  size(2) Largest target is 1
		 -> LATD(SFR_5[1]), 

    motor1$tris	PTR volatile unsigned char  size(2) Largest target is 1
		 -> TRISD(SFR_5[1]), 

    motor2$ansel	PTR volatile unsigned char  size(2) Largest target is 1
		 -> ANSELD(SFR_4[1]), 

    motor2$lat	PTR volatile unsigned char  size(2) Largest target is 1
		 -> LATD(SFR_5[1]), 

    motor2$tris	PTR volatile unsigned char  size(2) Largest target is 1
		 -> TRISD(SFR_5[1]), 

    S24$ansel	PTR volatile unsigned char  size(2) Largest target is 1
		 -> ANSELD(SFR_4[1]), 

    S24$lat	PTR volatile unsigned char  size(2) Largest target is 1
		 -> LATD(SFR_5[1]), 

    S24$tris	PTR volatile unsigned char  size(2) Largest target is 1
		 -> TRISD(SFR_5[1]), 

    Stepper_fullTurn_CCW@motor	PTR struct . size(2) Largest target is 11
		 -> motor1(COMRAM[8]), motor2(COMRAM[8]), 

    Stepper_fullTurn_CW@motor	PTR struct . size(2) Largest target is 11
		 -> motor1(COMRAM[8]), motor2(COMRAM[8]), 

    Stepper_Init@ansel	PTR volatile unsigned char  size(2) Largest target is 1
		 -> ANSELD(SFR_4[1]), 

    Stepper_Init@lat	PTR volatile unsigned char  size(2) Largest target is 1
		 -> LATD(SFR_5[1]), 

    Stepper_Init@motor	PTR struct . size(2) Largest target is 11
		 -> motor1(COMRAM[8]), motor2(COMRAM[8]), 

    Stepper_Init@motor$ansel	PTR volatile unsigned char  size(2) Largest target is 1
		 -> ANSELD(SFR_4[1]), 

    Stepper_Init@motor$lat	PTR volatile unsigned char  size(2) Largest target is 1
		 -> LATD(SFR_5[1]), 

    Stepper_Init@motor$tris	PTR volatile unsigned char  size(2) Largest target is 1
		 -> TRISD(SFR_5[1]), 

    Stepper_Init@tris	PTR volatile unsigned char  size(2) Largest target is 1
		 -> TRISD(SFR_5[1]), 

    Stepper_Move_CCW@motor	PTR struct . size(2) Largest target is 11
		 -> motor1(COMRAM[8]), motor2(COMRAM[8]), 

    Stepper_Move_CW@motor	PTR struct . size(2) Largest target is 11
		 -> motor1(COMRAM[8]), motor2(COMRAM[8]), 

    Stepper_Off@motor	PTR struct . size(2) Largest target is 11
		 -> motor1(COMRAM[8]), motor2(COMRAM[8]), 

    Stepper_Step_CCW@motor	PTR struct . size(2) Largest target is 11
		 -> motor1(COMRAM[8]), motor2(COMRAM[8]), 

    Stepper_Step_CCW@motor$ansel	PTR volatile unsigned char  size(2) Largest target is 1
		 -> ANSELD(SFR_4[1]), 

    Stepper_Step_CCW@motor$lat	PTR volatile unsigned char  size(2) Largest target is 1
		 -> LATD(SFR_5[1]), 

    Stepper_Step_CCW@motor$tris	PTR volatile unsigned char  size(2) Largest target is 1
		 -> TRISD(SFR_5[1]), 

    Stepper_Step_CW@motor	PTR struct . size(2) Largest target is 11
		 -> motor1(COMRAM[8]), motor2(COMRAM[8]), 

    Stepper_Step_CW@motor$ansel	PTR volatile unsigned char  size(2) Largest target is 1
		 -> ANSELD(SFR_4[1]), 

    Stepper_Step_CW@motor$lat	PTR volatile unsigned char  size(2) Largest target is 1
		 -> LATD(SFR_5[1]), 

    Stepper_Step_CW@motor$tris	PTR volatile unsigned char  size(2) Largest target is 1
		 -> TRISD(SFR_5[1]), 

    Stepper_Write@motor	PTR struct . size(2) Largest target is 11
		 -> motor1(COMRAM[8]), motor2(COMRAM[8]), 

    Stepper_Write@motor$ansel	PTR volatile unsigned char  size(2) Largest target is 1
		 -> ANSELD(SFR_4[1]), 

    Stepper_Write@motor$lat	PTR volatile unsigned char  size(2) Largest target is 1
		 -> LATD(SFR_5[1]), 

    Stepper_Write@motor$tris	PTR volatile unsigned char  size(2) Largest target is 1
		 -> TRISD(SFR_5[1]), 


Critical Paths under _main in COMRAM

    _main->_Stepper_fullTurn_CCW
    _main->_Stepper_fullTurn_CW
    _Stepper_fullTurn_CW->_Stepper_Move_CW
    _Stepper_Move_CW->_Stepper_Step_CW
    _Stepper_Step_CW->_Stepper_Write
    _Stepper_fullTurn_CCW->_Stepper_Move_CCW
    _Stepper_Off->_Stepper_Write
    _Stepper_Move_CCW->_Stepper_Step_CCW
    _Stepper_Step_CCW->_Stepper_Write

Critical Paths under _main in BANK5

    None.

Critical Paths under _main in BANK6

    None.

Critical Paths under _main in BANK7

    None.

Critical Paths under _main in BANK8

    None.

Critical Paths under _main in BANK9

    None.

Critical Paths under _main in BANK10

    None.

Critical Paths under _main in BANK11

    None.

Critical Paths under _main in BANK12

    None.

Critical Paths under _main in BANK13

    None.

Critical Paths under _main in BANK14

    None.

Critical Paths under _main in BANK15

    None.

Critical Paths under _main in BANK16

    None.

Critical Paths under _main in BANK17

    None.

Critical Paths under _main in BANK18

    None.

Critical Paths under _main in BANK19

    None.

Critical Paths under _main in BANK20

    None.

Critical Paths under _main in BANK21

    None.

Critical Paths under _main in BANK22

    None.

Critical Paths under _main in BANK23

    None.

Critical Paths under _main in BANK24

    None.

Critical Paths under _main in BANK25

    None.

Critical Paths under _main in BANK26

    None.

Critical Paths under _main in BANK27

    None.

Critical Paths under _main in BANK28

    None.

Critical Paths under _main in BANK29

    None.

Critical Paths under _main in BANK30

    None.

Critical Paths under _main in BANK31

    None.

Critical Paths under _main in BANK32

    None.

Critical Paths under _main in BANK33

    None.

Critical Paths under _main in BANK34

    None.

Critical Paths under _main in BANK35

    None.

Critical Paths under _main in BANK36

    None.

Call Graph Tables:

 ---------------------------------------------------------------------------------
 (Depth) Function   	        Calls       Base Space   Used Autos Params    Refs
 ---------------------------------------------------------------------------------
 (0) _main                                                 2     2      0    2248
                                             25 COMRAM     2     2      0
                       _Stepper_Init
                        _Stepper_Off
               _Stepper_fullTurn_CCW
                _Stepper_fullTurn_CW
                             _config
 ---------------------------------------------------------------------------------
 (1) _config                                               0     0      0       0
 ---------------------------------------------------------------------------------
 (1) _Stepper_fullTurn_CW                                  2     0      2     804
                                             23 COMRAM     2     0      2
                    _Stepper_Move_CW
                        _Stepper_Off
 ---------------------------------------------------------------------------------
 (2) _Stepper_Move_CW                                     11     5      6     480
                                             12 COMRAM    11     5      6
                    _Stepper_Step_CW
 ---------------------------------------------------------------------------------
 (3) _Stepper_Step_CW                                      4     2      2     363
                                              8 COMRAM     4     2      2
                      _Stepper_Write
 ---------------------------------------------------------------------------------
 (1) _Stepper_fullTurn_CCW                                 2     0      2     804
                                             23 COMRAM     2     0      2
                   _Stepper_Move_CCW
                        _Stepper_Off
 ---------------------------------------------------------------------------------
 (2) _Stepper_Off                                          2     0      2     278
                                              8 COMRAM     2     0      2
                      _Stepper_Write
 ---------------------------------------------------------------------------------
 (2) _Stepper_Move_CCW                                    11     5      6     480
                                             12 COMRAM    11     5      6
                   _Stepper_Step_CCW
 ---------------------------------------------------------------------------------
 (3) _Stepper_Step_CCW                                     4     2      2     363
                                              8 COMRAM     4     2      2
                      _Stepper_Write
 ---------------------------------------------------------------------------------
 (4) _Stepper_Write                                        9     6      3     252
                                              0 COMRAM     8     5      3
 ---------------------------------------------------------------------------------
 (1) _Stepper_Init                                        11     2      9     362
                                              0 COMRAM    11     2      9
 ---------------------------------------------------------------------------------
 Estimated maximum stack depth 4
 ---------------------------------------------------------------------------------

 Call Graph Graphs:

 _main (ROOT)
   _Stepper_Init
   _Stepper_Off
     _Stepper_Write
   _Stepper_fullTurn_CCW
     _Stepper_Move_CCW
       _Stepper_Step_CCW
         _Stepper_Write
     _Stepper_Off
   _Stepper_fullTurn_CW
     _Stepper_Move_CW
       _Stepper_Step_CW
         _Stepper_Write
     _Stepper_Off
   _config

Address spaces:
Name               Size   Autos  Total    Usage
BIGRAM            8191      0       0      0.0%
BITBIGSFRh        1100      0       0      0.0%
BITBIGSFR_1        256      0       0      0.0%
BITBANK36          256      0       0      0.0%
BANK36             256      0       0      0.0%
BITBANK35          256      0       0      0.0%
BANK35             256      0       0      0.0%
BITBANK34          256      0       0      0.0%
BANK34             256      0       0      0.0%
BITBANK33          256      0       0      0.0%
BANK33             256      0       0      0.0%
BITBANK32          256      0       0      0.0%
BANK32             256      0       0      0.0%
BITBANK31          256      0       0      0.0%
BANK31             256      0       0      0.0%
BITBANK30          256      0       0      0.0%
BANK30             256      0       0      0.0%
BITBANK29          256      0       0      0.0%
BANK29             256      0       0      0.0%
BITBANK28          256      0       0      0.0%
BANK28             256      0       0      0.0%
BITBANK27          256      0       0      0.0%
BANK27             256      0       0      0.0%
BITBANK26          256      0       0      0.0%
BANK26             256      0       0      0.0%
BITBANK25          256      0       0      0.0%
BANK25             256      0       0      0.0%
BITBANK24          256      0       0      0.0%
BANK24             256      0       0      0.0%
BITBANK23          256      0       0      0.0%
BANK23             256      0       0      0.0%
BITBANK22          256      0       0      0.0%
BANK22             256      0       0      0.0%
BITBANK21          256      0       0      0.0%
BANK21             256      0       0      0.0%
BITBANK20          256      0       0      0.0%
BANK20             256      0       0      0.0%
BITBANK19          256      0       0      0.0%
BANK19             256      0       0      0.0%
BITBANK18          256      0       0      0.0%
BANK18             256      0       0      0.0%
BITBANK17          256      0       0      0.0%
BANK17             256      0       0      0.0%
BITBANK16          256      0       0      0.0%
BANK16             256      0       0      0.0%
BITBANK15          256      0       0      0.0%
BANK15             256      0       0      0.0%
BITBANK14          256      0       0      0.0%
BANK14             256      0       0      0.0%
BITBANK13          256      0       0      0.0%
BANK13             256      0       0      0.0%
BITBANK12          256      0       0      0.0%
BANK12             256      0       0      0.0%
BITBANK11          256      0       0      0.0%
BANK11             256      0       0      0.0%
BITBANK10          256      0       0      0.0%
BANK10             256      0       0      0.0%
BITBANK9           256      0       0      0.0%
BANK9              256      0       0      0.0%
BITBANK8           256      0       0      0.0%
BANK8              256      0       0      0.0%
BITBANK7           256      0       0      0.0%
BANK7              256      0       0      0.0%
BITBANK6           256      0       0      0.0%
BANK6              256      0       0      0.0%
BITBIGSFRll        173      0       0      0.0%
BITBANK5           160      0       0      0.0%
BANK5              160      0       0      0.0%
BITCOMRAM           95      0       0      0.0%
COMRAM              95     27      43     45.3%
BITBIGSFRlh          5      0       0      0.0%
STACK                0      0       0      0.0%
DATA                 0      0      43      0.0%


Microchip Technology PIC18 Macro Assembler V3.10 build 20250813170317 
Symbol Table                                                                                   Fri May 29 20:40:46 2026

  __end_of_full_step_sequence 2605                            l53 2734                            l29 2B16  
                          l62 2958                            l71 29BE                            l48 28EC  
                          l80 2A8A                            l57 2A24                            l67 298E  
                          l83 2AB2                            l76 2A5A                            l86 2ADA  
                          l89 2B06                            u90 2864                            u91 2860  
         _Stepper_fullTurn_CW 2A8C                           l935 2B08                           l993 2848  
                         l995 2864                           l997 2864                           l999 286A  
                         u100 2A16                           u101 2A12                           u110 2936  
                         u111 2932                           u120 29A4                           u121 29A0  
                         u130 29BE                           u131 29BA                           u140 2A70  
                         u141 2A6C                           u150 2A8A                           u151 2A86  
                         u207 2806                           u160 2678                           u161 2674  
                         u217 2834                           u227 2980                           u237 2A4C  
                         u177 27A0                           u187 27C2                           u197 27E4  
     __end_of_Stepper_Move_CW 29C0                           wreg 04E8       __end_of_Stepper_Step_CW 2A26  
        _Stepper_fullTurn_CCW 2AB4                          l1001 28A6                          l1003 28A6  
                        l1011 29FA                          l1005 28B4                          l1021 294A  
                        l1013 2A16                          l1101 27FC                          l1015 28EE  
                        l1023 2AF6                          l1007 29C0                          l1031 297A  
                        l1103 2812                          l1017 291A                          l1041 2A30  
                        l1009 29EC                          l1033 298A                          l1025 295A  
                        l1105 281E                          l1019 2936                          l1043 2A3C  
                        l1051 2A74                          l1035 29A4                          l1027 2964  
                        l1107 282A                          l1061 264E                          l1053 2606  
                        l1045 2A46                          l1029 2970                          l1037 29A8  
                        l1071 2718                          l1063 265C                          l1055 2616  
                        l1047 2A56                          l1039 2A26                          l1065 2678  
                        l1057 262A                          l1049 2A70                          l1073 2A8C  
                        l1081 2736                          l1067 26B8                          l1059 263E  
                        l1075 2AA6                          l1091 27AC                          l1083 273A  
                        l1069 26D8                          l1077 2AB4                          l1093 27B8  
                        l1085 2762                          l1079 2ACE                          l1095 27CE  
                        l1087 278A                          l1097 27DA                          l1089 2796  
                        l1099 27F0                ?_Stepper_Write 0501                          _LATD 04C1  
        ?_Stepper_fullTurn_CW 0518      __end_of_Stepper_Move_CCW 2A8C                          _main 2736  
                        fsr2h 04DA                          indf2 04DF                          fsr2l 04D9  
                        start FFFC      __end_of_Stepper_Step_CCW 295A                  ___param_bank 0000  
     Stepper_Move_CW@delay_ms 0511                         ?_main 0501            Stepper_Init@nibble 0509  
                       _OSCEN 00B3                         _TRISD 04C9         ?_Stepper_fullTurn_CCW 0518  
                       tablat 04F5         ??_Stepper_fullTurn_CW 051A                         status 04D8  
             __initialization 2ADC                  __end_of_main 2848          Stepper_Step_CW@motor 0509  
                      ??_main 051A                 __activetblptr 0001              ?_Stepper_Move_CW 050D  
            ?_Stepper_Step_CW 0509               ??_Stepper_Write 0504                        _ANSELD 0418  
                      _OSCFRQ 00B1                        _config 2B08                        clear_0 2AE2  
                      _motor1 0524                        _motor2 051C                        isa$std 0001  
      ??_Stepper_fullTurn_CCW 051A                  __mediumconst 2600                        tblptrh 04F7  
                      tblptrl 04F6                        tblptru 04F8         Stepper_Step_CCW@motor 0509  
                  __accesstop 0560       __end_of__initialization 2AE8                 ___rparam_used 0001  
              __pcstackCOMRAM 0501                 ??_Stepper_Off 050B            _full_step_sequence 2601  
           ?_Stepper_Move_CCW 050D            ??_Stepper_Move_CCW 0513     Stepper_fullTurn_CCW@motor 0518  
           ?_Stepper_Step_CCW 0509            ??_Stepper_Step_CCW 050B                       ?_config 0501  
                     _OSCCON1 00AD     Stepper_Write@output_value 0508           __end_of_Stepper_Off 2B08  
          Stepper_Write@value 0503            Stepper_Write@motor 0501      Stepper_fullTurn_CW@motor 0518  
                     __Hparam 0000                       __Lparam 0000                  __psmallconst 2600  
                     __pcinit 2ADC                       __ramtop 2600                       __ptext0 2736  
                     __ptext1 2B08                       __ptext2 2A8C                       __ptext3 295A  
                     __ptext4 29C0                       __ptext5 2AB4                       __ptext6 2AF6  
                     __ptext7 2A26                       __ptext8 28EE                       __ptext9 2848  
 __end_of_Stepper_fullTurn_CW 2AB4          end_of_initialization 2AE8                       postdec2 04DD  
                     postinc0 04EE                       postinc2 04DE         Stepper_Move_CCW@motor 050D  
       Stepper_Move_CCW@steps 050F                   _Stepper_Off 2AF6         __end_of_Stepper_Write 28EE  
               ?_Stepper_Init 0501             Stepper_Init@ansel 0507             Stepper_Init@motor 0501  
              __end_of_config 2B18           start_initialization 2ADC                ??_Stepper_Init 050A  
           Stepper_Move_CCW@i 0514             Stepper_Move_CCW@j 0516                      ??_config 0501  
                 __pbssCOMRAM 051C             ??_Stepper_Move_CW 0513             ??_Stepper_Step_CW 050B  
                 __smallconst 2600          __end_of_Stepper_Init 2736                  ?_Stepper_Off 0509  
            Stepper_Off@motor 0509          Stepper_Move_CW@motor 050D          Stepper_Move_CW@steps 050F  
            Stepper_Init@tris 0505                      __Hrparam 0000              Stepper_Move_CW@i 0514  
            Stepper_Move_CW@j 0516                      __Lrparam 0000                  __Lsmallconst 2600  
            _Stepper_Move_CCW 2A26              _Stepper_Step_CCW 28EE                      __ptext10 2606  
    Stepper_Move_CCW@delay_ms 0511  __end_of_Stepper_fullTurn_CCW 2ADC                      isa$xinst 0000  
             Stepper_Init@lat 0503               _Stepper_Move_CW 295A               _Stepper_Step_CW 29C0  
               _Stepper_Write 2848                  _Stepper_Init 2606  
